Microchip Technology Inc, v1.41 (B)

Tool Name:
  c:\program files (x86)\microchip\xc16\v1.41\bin\bin\..\bin/elf-ld.exe

Command:
  -TC:\\Temp\\tmp00011170.00 \
  -TC:\\Temp\\tmp00011170.01 \
  -TC:\\Temp\\tmp00011170.02 \
  -TC:\\Temp\\tmp00011170.03 \
  -TC:\\Temp\\tmp00011170.04 \
  -TC:\\Temp\\tmp00011170.05 \
  -TC:\\Temp\\tmp00011170.06 \
  -p33CK128MP505 \
  --mdfp=C:/Program Files (x86)/Microchip/MPLABX/v5.30/packs/Microchip/dsPIC33CK-MP_DFP/1.2.66/xc16 \
  -o \
  dist/00173_USB_PD_BOB_R21/debug/usb_pd_bob.X.debug.elf \
  -Lc:/program files (x86)/microchip/xc16/v1.41/bin/bin/.. \
  -LC:/Program Files (x86)/Microchip/MPLABX/v5.30/packs/Microchip/dsPIC33CK-MP_DFP/1.2.66/xc16/bin/../support/dsPIC33C/gld \
  -Lc:/program files (x86)/microchip/xc16/v1.41/bin/bin/../../lib \
  -Lc:/program files (x86)/microchip/xc16/v1.41/bin/bin/../../support/PIC24E/gld \
  -Lc:/program files (x86)/microchip/xc16/v1.41/bin/bin/../../support/PIC24F/gld \
  -Lc:/program files (x86)/microchip/xc16/v1.41/bin/bin/../../support/PIC24H/gld \
  -Lc:/program files (x86)/microchip/xc16/v1.41/bin/bin/../../support/dsPIC30F/gld \
  -Lc:/program files (x86)/microchip/xc16/v1.41/bin/bin/../../support/dsPIC33C/gld \
  -Lc:/program files (x86)/microchip/xc16/v1.41/bin/bin/../../support/dsPIC33E/gld \
  -Lc:/program files (x86)/microchip/xc16/v1.41/bin/bin/../../support/dsPIC33F/gld \
  build/00173_USB_PD_BOB_R21/debug/_ext/949971983/fdrv_FaultHandler.o \
  build/00173_USB_PD_BOB_R21/debug/_ext/949971983/fdrv_TrapHandler.o \
  build/00173_USB_PD_BOB_R21/debug/_ext/949971983/fdrv_FaultObjects.o \
  build/00173_USB_PD_BOB_R21/debug/_ext/949971983/os_Initialize.o \
  build/00173_USB_PD_BOB_R21/debug/_ext/949971983/os_Scheduler.o \
  build/00173_USB_PD_BOB_R21/debug/_ext/949971983/os_TaskManager.o \
  build/00173_USB_PD_BOB_R21/debug/_ext/687227054/UserStartupCode.o \
  build/00173_USB_PD_BOB_R21/debug/_ext/687227054/UserAppManager.o \
  build/00173_USB_PD_BOB_R21/debug/_ext/687227054/UserFaultObjects.o \
  build/00173_USB_PD_BOB_R21/debug/_ext/687227054/UserTasks.o \
  build/00173_USB_PD_BOB_R21/debug/_ext/1515990320/smpsDebugUART.o \
  build/00173_USB_PD_BOB_R21/debug/_ext/1515990320/smpsDebugUART_UserCID.o \
  build/00173_USB_PD_BOB_R21/debug/_ext/92048113/debug_uart.o \
  build/00173_USB_PD_BOB_R21/debug/_ext/2109991248/upd_timer.o \
  build/00173_USB_PD_BOB_R21/debug/_ext/553671219/c4swbb_control.o \
  build/00173_USB_PD_BOB_R21/debug/_ext/553671219/c4swbb_pconfig.o \
  build/00173_USB_PD_BOB_R21/debug/_ext/553671219/cha_iloop.o \
  build/00173_USB_PD_BOB_R21/debug/_ext/553671219/cha_vloop.o \
  build/00173_USB_PD_BOB_R21/debug/_ext/553671219/chb_iloop.o \
  build/00173_USB_PD_BOB_R21/debug/_ext/553671219/chb_vloop.o \
  build/00173_USB_PD_BOB_R21/debug/_ext/553671219/c4swbb_write_pwm.o \
  build/00173_USB_PD_BOB_R21/debug/_ext/553671219/cha_iloop_asm.o \
  build/00173_USB_PD_BOB_R21/debug/_ext/553671219/cha_vloop_asm.o \
  build/00173_USB_PD_BOB_R21/debug/_ext/553671219/chb_iloop_asm.o \
  build/00173_USB_PD_BOB_R21/debug/_ext/553671219/chb_vloop_asm.o \
  build/00173_USB_PD_BOB_R21/debug/_ext/1494078692/spi2.o \
  build/00173_USB_PD_BOB_R21/debug/_ext/1666088709/cfg_globals.o \
  build/00173_USB_PD_BOB_R21/debug/_ext/1666088709/debug.o \
  build/00173_USB_PD_BOB_R21/debug/_ext/1666088709/generic_timer.o \
  build/00173_USB_PD_BOB_R21/debug/_ext/1666088709/int_globals.o \
  build/00173_USB_PD_BOB_R21/debug/_ext/1666088709/pd_main.o \
  build/00173_USB_PD_BOB_R21/debug/_ext/1666088709/policy_engine.o \
  build/00173_USB_PD_BOB_R21/debug/_ext/1666088709/policy_engine_fwup.o \
  build/00173_USB_PD_BOB_R21/debug/_ext/1666088709/policy_engine_snk.o \
  build/00173_USB_PD_BOB_R21/debug/_ext/1666088709/policy_engine_src.o \
  build/00173_USB_PD_BOB_R21/debug/_ext/1666088709/policy_manager.o \
  build/00173_USB_PD_BOB_R21/debug/_ext/1666088709/protocol_layer.o \
  build/00173_USB_PD_BOB_R21/debug/_ext/1666088709/typeC_control.o \
  build/00173_USB_PD_BOB_R21/debug/_ext/1666088709/upd_hw.o \
  build/00173_USB_PD_BOB_R21/debug/_ext/1666088709/upd_interrupts.o \
  build/00173_USB_PD_BOB_R21/debug/_ext/481295256/hook_functions.o \
  build/00173_USB_PD_BOB_R21/debug/_ext/481295256/thermal_power_management.o \
  build/00173_USB_PD_BOB_R21/debug/_ext/1838571682/task_Idle.o \
  build/00173_USB_PD_BOB_R21/debug/_ext/1838571682/task_PDStack.o \
  build/00173_USB_PD_BOB_R21/debug/_ext/1838571682/task_PowerControl.o \
  build/00173_USB_PD_BOB_R21/debug/_ext/1838571682/task_DebugUART.o \
  build/00173_USB_PD_BOB_R21/debug/_ext/659850787/apl.o \
  build/00173_USB_PD_BOB_R21/debug/_ext/659857049/hal.o \
  build/00173_USB_PD_BOB_R21/debug/_ext/391766742/config_bits_P33CH.o \
  build/00173_USB_PD_BOB_R21/debug/_ext/391766742/config_bits_P33CK.o \
  build/00173_USB_PD_BOB_R21/debug/_ext/1171588148/init_dsp.o \
  build/00173_USB_PD_BOB_R21/debug/_ext/1171588148/init_fosc.o \
  build/00173_USB_PD_BOB_R21/debug/_ext/1171588148/init_gpio.o \
  build/00173_USB_PD_BOB_R21/debug/_ext/1171588148/init_irq.o \
  build/00173_USB_PD_BOB_R21/debug/_ext/1171588148/init_timer.o \
  build/00173_USB_PD_BOB_R21/debug/_ext/1019117317/mcal.o \
  build/00173_USB_PD_BOB_R21/debug/_ext/659867775/sfl.o \
  build/00173_USB_PD_BOB_R21/debug/_ext/1360937237/main.o \
  ..\..\plib\p33SMPS_mcal.X\dist\__P33SMPS_CK__\debug\p33SMPS_mcal.X.a \
  --local-stack \
  --defsym=__MPLAB_BUILD=1 \
  --defsym=__MPLAB_DEBUG=1 \
  --defsym=__DEBUG=1 \
  --defsym=__MPLAB_DEBUGGER_ICD4=1 \
  -Tp33CK128MP505.gld.07 \
  --stack=16 \
  --check-sections \
  --data-init \
  --pack-data \
  --handles \
  --isr \
  --no-gc-sections \
  --fill-upper=0 \
  --stackguard=16 \
  --no-force-link \
  --smart-io \
  -Map=dist/00173_USB_PD_BOB_R21/debug/usb_pd_bob.X.debug.map \
  --report-mem \
  --memorysummary \
  dist/00173_USB_PD_BOB_R21/debug/memoryfile.xml \
  -start-group \
  --library=lega-pic30-elf \
  --library=m-elf \
  --library=lega-c-elf \
  -end-group \

Archive member included because of file (symbol)

..\..\plib\p33SMPS_mcal.X\dist\__P33SMPS_CK__\debug\p33SMPS_mcal.X.a(p33SMPS_hsadc.o)
                              build/00173_USB_PD_BOB_R21/debug/_ext/553671219/c4swbb_pconfig.o (_smpsHSADC_Module_Initialize)
..\..\plib\p33SMPS_mcal.X\dist\__P33SMPS_CK__\debug\p33SMPS_mcal.X.a(p33SMPS_oscillator.o)
                              build/00173_USB_PD_BOB_R21/debug/_ext/949971983/os_TaskManager.o (_system_frequencies)
..\..\plib\p33SMPS_mcal.X\dist\__P33SMPS_CK__\debug\p33SMPS_mcal.X.a(p33SMPS_timer.o)
                              build/00173_USB_PD_BOB_R21/debug/_ext/1171588148/init_timer.o (_smpsTimer_Initialize16b)
..\..\plib\p33SMPS_mcal.X\dist\__P33SMPS_CK__\debug\p33SMPS_mcal.X.a(p33SMPS_pmd.o)
                              build/00173_USB_PD_BOB_R21/debug/_ext/949971983/os_Initialize.o (_smpsPMD_SetPowerStateAll)
..\..\plib\p33SMPS_mcal.X\dist\__P33SMPS_CK__\debug\p33SMPS_mcal.X.a(p33SMPS_pps.o)
                              build/00173_USB_PD_BOB_R21/debug/_ext/1838571682/task_DebugUART.o (_smpsPPS_UnlockIO)
..\..\plib\p33SMPS_mcal.X\dist\__P33SMPS_CK__\debug\p33SMPS_mcal.X.a(p33SMPS_irq.o)
                              build/00173_USB_PD_BOB_R21/debug/_ext/1171588148/init_irq.o (_gsirq_irq_initialize)
..\..\plib\p33SMPS_mcal.X\dist\__P33SMPS_CK__\debug\p33SMPS_mcal.X.a(p33SMPS_gpio.o)
                              build/00173_USB_PD_BOB_R21/debug/_ext/949971983/os_Initialize.o (_smpsGPIO_Initialize)
..\..\plib\p33SMPS_mcal.X\dist\__P33SMPS_CK__\debug\p33SMPS_mcal.X.a(p33SMPS_uart.o)
                              build/00173_USB_PD_BOB_R21/debug/_ext/1515990320/smpsDebugUART.o (_smpsUART_OpenPort)
..\..\plib\p33SMPS_mcal.X\dist\__P33SMPS_CK__\debug\p33SMPS_mcal.X.a(p33SMPS_hspwm_c.o)
                              build/00173_USB_PD_BOB_R21/debug/_ext/553671219/c4swbb_pconfig.o (_smpsHSPWM_Module_Initialize)
..\..\plib\p33SMPS_mcal.X\dist\__P33SMPS_CK__\debug\p33SMPS_mcal.X.a(p33SMPS_crc.o)
                              build/00173_USB_PD_BOB_R21/debug/_ext/1515990320/smpsDebugUART.o (_smpsCRC_GetStandard_Data8CRC16)

Optional library libp33CK128MP505.a not found
c:/program files (x86)/microchip/xc16/v1.41/bin/bin/../../lib\liblega-pic30-elf.a(crt0_extendedch.o)
                              (__resetPRI)
c:/program files (x86)/microchip/xc16/v1.41/bin/bin/../../lib\liblega-pic30-elf.a(data_init_extendedch.o)
                              c:/program files (x86)/microchip/xc16/v1.41/bin/bin/../../lib\liblega-pic30-elf.a(crt0_extendedch.o) (__data_init_extended)
c:/program files (x86)/microchip/xc16/v1.41/bin/bin/../../lib\liblega-pic30-elf.a(crt_start_mode_normalch.Leo)
                              (__crt_start_mode_normal)
c:/program files (x86)/microchip/xc16/v1.41/bin/bin/../../lib\libm-elf.a(divsf3.cheo)
                              build/00173_USB_PD_BOB_R21/debug/_ext/949971983/os_TaskManager.o (___divsf3)
c:/program files (x86)/microchip/xc16/v1.41/bin/bin/../../lib\libm-elf.a(divsi3.cheo)
                              ..\..\plib\p33SMPS_mcal.X\dist\__P33SMPS_CK__\debug\p33SMPS_mcal.X.a(p33SMPS_oscillator.o) (___divsi3)
c:/program files (x86)/microchip/xc16/v1.41/bin/bin/../../lib\libm-elf.a(feqltle.cheo)
                              build/00173_USB_PD_BOB_R21/debug/_ext/1666088709/typeC_control.o (___lesf2)
c:/program files (x86)/microchip/xc16/v1.41/bin/bin/../../lib\libm-elf.a(fixunssfsi.cheo)
                              build/00173_USB_PD_BOB_R21/debug/_ext/949971983/os_TaskManager.o (___fixunssfsi)
c:/program files (x86)/microchip/xc16/v1.41/bin/bin/../../lib\libm-elf.a(floatunsisf.cheo)
                              build/00173_USB_PD_BOB_R21/debug/_ext/949971983/os_TaskManager.o (___floatunsisf)
c:/program files (x86)/microchip/xc16/v1.41/bin/bin/../../lib\libm-elf.a(fpack.cheo)
                              c:/program files (x86)/microchip/xc16/v1.41/bin/bin/../../lib\libm-elf.a(divsf3.cheo) (__fpack)
c:/program files (x86)/microchip/xc16/v1.41/bin/bin/../../lib\libm-elf.a(funpack.cheo)
                              c:/program files (x86)/microchip/xc16/v1.41/bin/bin/../../lib\libm-elf.a(fixunssfsi.cheo) (__funpack)
c:/program files (x86)/microchip/xc16/v1.41/bin/bin/../../lib\libm-elf.a(funpack2.cheo)
                              c:/program files (x86)/microchip/xc16/v1.41/bin/bin/../../lib\libm-elf.a(divsf3.cheo) (__funpack2)
c:/program files (x86)/microchip/xc16/v1.41/bin/bin/../../lib\libm-elf.a(futil.cheo)
                              c:/program files (x86)/microchip/xc16/v1.41/bin/bin/../../lib\libm-elf.a(divsf3.cheo) (__fPropagateNaN)
c:/program files (x86)/microchip/xc16/v1.41/bin/bin/../../lib\libm-elf.a(mulsf3.cheo)
                              build/00173_USB_PD_BOB_R21/debug/_ext/949971983/os_TaskManager.o (___mulsf3)
c:/program files (x86)/microchip/xc16/v1.41/bin/bin/../../lib\libm-elf.a(udivsi3.cheo)
                              build/00173_USB_PD_BOB_R21/debug/_ext/481295256/thermal_power_management.o (___udivsi3)
c:/program files (x86)/microchip/xc16/v1.41/bin/bin/../../lib\libm-elf.a(fcompare.cheo)
                              c:/program files (x86)/microchip/xc16/v1.41/bin/bin/../../lib\libm-elf.a(feqltle.cheo) (__fcompare)
c:/program files (x86)/microchip/xc16/v1.41/bin/bin/../../lib\libm-elf.a(floatundisf.cheo)
                              c:/program files (x86)/microchip/xc16/v1.41/bin/bin/../../lib\libm-elf.a(floatunsisf.cheo) (___floatundisf)
c:/program files (x86)/microchip/xc16/v1.41/bin/bin/../../lib\liblega-c-elf.a(sprintf_cdnopuxX.CHeo)
                              build/00173_USB_PD_BOB_R21/debug/_ext/481295256/hook_functions.o (__sprintf_cdnopuxX)
c:/program files (x86)/microchip/xc16/v1.41/bin/bin/../../lib\liblega-c-elf.a(memcpy.CH_eo)
                              build/00173_USB_PD_BOB_R21/debug/_ext/1666088709/policy_manager.o (_memcpy)
c:/program files (x86)/microchip/xc16/v1.41/bin/bin/../../lib\liblega-c-elf.a(xprintf_cdnopuxX.CHeo)
                              c:/program files (x86)/microchip/xc16/v1.41/bin/bin/../../lib\liblega-c-elf.a(sprintf_cdnopuxX.CHeo) (___Printf_cdnopuxX)
c:/program files (x86)/microchip/xc16/v1.41/bin/bin/../../lib\liblega-c-elf.a(strchr.CH_eo)
                              c:/program files (x86)/microchip/xc16/v1.41/bin/bin/../../lib\liblega-c-elf.a(xprintf_cdnopuxX.CHeo) (_strchr)
c:/program files (x86)/microchip/xc16/v1.41/bin/bin/../../lib\liblega-c-elf.a(xputtxt.CH_eo)
                              c:/program files (x86)/microchip/xc16/v1.41/bin/bin/../../lib\liblega-c-elf.a(xprintf_cdnopuxX.CHeo) (__Puttxt)
c:/program files (x86)/microchip/xc16/v1.41/bin/bin/../../lib\liblega-c-elf.a(xvacopy.CH_eo)
                              c:/program files (x86)/microchip/xc16/v1.41/bin/bin/../../lib\liblega-c-elf.a(xprintf_cdnopuxX.CHeo) (__Vacopy)
c:/program files (x86)/microchip/xc16/v1.41/bin/bin/../../lib\liblega-c-elf.a(xputfld_cdnopuxX.CHeo)
                              c:/program files (x86)/microchip/xc16/v1.41/bin/bin/../../lib\liblega-c-elf.a(xprintf_cdnopuxX.CHeo) (___Putfld_cdnopuxX)
c:/program files (x86)/microchip/xc16/v1.41/bin/bin/../../lib\liblega-c-elf.a(xlitob.CH_eo)
                              c:/program files (x86)/microchip/xc16/v1.41/bin/bin/../../lib\liblega-c-elf.a(xputfld_cdnopuxX.CHeo) (__Litob)
c:/program files (x86)/microchip/xc16/v1.41/bin/bin/../../lib\libm-elf.a(umodsi3.cheo)
                              c:/program files (x86)/microchip/xc16/v1.41/bin/bin/../../lib\liblega-c-elf.a(xlitob.CH_eo) (___umodsi3)
c:/program files (x86)/microchip/xc16/v1.41/bin/bin/../../lib\libm-elf.a(divmoddi3.cheo)
                              c:/program files (x86)/microchip/xc16/v1.41/bin/bin/../../lib\liblega-c-elf.a(xlitob.CH_eo) (___udivdi3)


Selected CodeGuard Options:
  FSEC:BWRP:OFF
  FSEC:BSS:DISABLED
  FSEC:BSEN:OFF
  FSEC:GWRP:OFF
  FSEC:GSS:DISABLED
  FSEC:CWRP:OFF
  FSEC:CSS:DISABLED
  FSEC:AIVTDIS:OFF

CodeGuard FLASH Memory:
  boot    (none)
  secure  (none)
  general 0x200 to 0x15efe

CodeGuard RAM Memory:
  general 0x1000 to 0x4fff
  secure  (none)
  boot    (none)


xc16-ld 1.41 (B)

Default Code Model: Small
Default Data Model: Large
Default Scalar Model: Small

"program" Memory  [Origin = 0x200, Length = 0x15d00]

section                    address   length (PC units)   length (bytes) (dec)
-------                    -------   -----------------   --------------------
.text                        0x200              0x1344          0x1ce6  (7398)
.const                      0x1544               0xfb0          0x1788  (6024)
.text                       0x24f4              0x87bc          0xcb9a  (52122)
.text.smpsHSPWM_Module_Initialize    0xacb0               0x52a           0x7bf  (1983)
.text                       0xb1da               0xa2e           0xf45  (3909)
.text.smpsHSPWM_Channel_Initialize    0xbc08               0x4de           0x74d  (1869)
.text                       0xc0e6               0x830           0xc48  (3144)
.text.smpsUART_OpenPort     0xc916               0x3dc           0x5ca  (1482)
.text                       0xccf2               0x3d8           0x5c4  (1476)
.text.smpsUART_Initialize    0xd0ca               0x3ce           0x5b5  (1461)
.text.smpsGPIO_WriteConfig    0xd498               0x39e           0x56d  (1389)
.text.smpsGPIO_ClearConfig    0xd836               0x338           0x4d4  (1236)
.text.smpsOSC_GetFrequencies    0xdb6e               0x332           0x4cb  (1227)
.text                       0xdea0               0x562           0x813  (2067)
.dinit                      0xe402               0x266           0x399  (921)
.text.smpsUART_ReadFIFO     0xe668               0x24e           0x375  (885)
.text.smpsHSPWM_IndependentPWM_Initialize    0xe8b6               0x22c           0x342  (834)
.text                       0xeae2               0x1cc           0x2b2  (690)
.text.smpsCRC_Initialize    0xecae               0x1c4           0x2a6  (678)
.text.smpsHSADC_Module_Initialize    0xee72               0x1a6           0x279  (633)
.text.smpsOSC_Initialize    0xf018               0x198           0x264  (612)
.text                       0xf1b0               0x2e2           0x453  (1107)
.text.smpsUART_WriteFIFO    0xf492               0x162           0x213  (531)
.text.smpsHSADC_ADComp_Initialize    0xf5f4               0x160           0x210  (528)
.text.smpsUART_GetBaudrate    0xf754               0x15c           0x20a  (522)
.text                       0xf8b0               0x14a           0x1ef  (495)
.text.smpsCRC_GetStandard_Data8CRC16    0xf9fa               0x134           0x1ce  (462)
.text.smpsHSADC_ADInput_SetMode    0xfb2e               0x11a           0x1a7  (423)
.text.smpsTimer_Initialize16b    0xfc48                0xf6           0x171  (369)
.text                       0xfd3e                0xf0           0x168  (360)
.text.smpsHSADC_Core_PowerUp    0xfe2e                0xee           0x165  (357)
.text.smpsHSADC_ADInput_SetInterrupt    0xff1c                0xec           0x162  (354)
.text                      0x10008               0x3a0           0x570  (1392)
.text.smpsUART_GetBaudrateRegValue   0x103a8                0xe0           0x150  (336)
.text.gsirq_irq_initialize   0x10488                0xca           0x12f  (303)
.text.smpsUART_SetBaudrate   0x10552                0xc2           0x123  (291)
.text                      0x10614                0xc0           0x120  (288)
.text.smpsOSC_FRC_DefaultInitialize   0x106d4                0xb8           0x114  (276)
.text                      0x1078c               0x388           0x54c  (1356)
.text.smpsTimer_GetTimerConfig   0x10b14                0xaa            0xff  (255)
.text.smpsHSPWM_ChannelTiming_Initialize   0x10bbe                0xaa            0xff  (255)
.text                      0x10c68                0x94            0xde  (222)
.text.smpsHSADC_ADFilter_Initialize   0x10cfc                0x90            0xd8  (216)
.text.smpsUART_Dispose     0x10d8c                0x8c            0xd2  (210)
.text.smpsHSPWM_Enable     0x10e18                0x8c            0xd2  (210)
.text.smpsHSADC_ADInput_SetTriggerMode   0x10ea4                0x84            0xc6  (198)
.text.smpsOSC_AUXCLK_Initialize   0x10f28                0x84            0xc6  (198)
.text.smpsHSADC_ADInput_Initialize   0x10fac                0x7c            0xba  (186)
.text.smpsUART_PowerOn     0x11028                0x7c            0xba  (186)
.text.smpsUART_GetStandardCRC16   0x110a4                0x78            0xb4  (180)
.text.smpsUART_PowerOff    0x1111c                0x70            0xa8  (168)
.text.smpsHSADC_Cores_CheckReady   0x1118c                0x6c            0xa2  (162)
.text.smpsUART_Close       0x111f8                0x62            0x93  (147)
.text.smpsHSPWM_SetDutyCycle   0x1125a                0x60            0x90  (144)
.text                      0x112ba                0x5c            0x8a  (138)
.text.smpsGPIO_SetIOConfig   0x11316                0x56            0x81  (129)
.text                      0x1136c                0x54            0x7e  (126)
.text.smpsGPIO_Initialize   0x113c0                0x54            0x7e  (126)
.text                      0x11414                0x52            0x7b  (123)
.text.smpsHSADC_Module_Enable   0x11466                0x52            0x7b  (123)
.text.smpsPMD_SetPowerStateAll   0x114b8                0x52            0x7b  (123)
.text.smpsOSC_AUXCLK_DefaultInitialize   0x1150a                0x50            0x78  (120)
.text.smpsHSPWM_OVR_Hold   0x1155a                0x4e            0x75  (117)
.text.smpsHSPWM_OVR_Release   0x115a8                0x4e            0x75  (117)
.text.smpsHSPWM_OVR_ReleaseHighSide   0x115f6                0x4e            0x75  (117)
.text.smpsHSPWM_OVR_ReleaseLowSide   0x11644                0x4e            0x75  (117)
.text.smpsHSPWM_SetGPIO_HighSide   0x11692                0x4c            0x72  (114)
.text.smpsHSPWM_ResetGPIO_HighSide   0x116de                0x4c            0x72  (114)
.text.smpsHSPWM_SetGPIO_LowSide   0x1172a                0x4c            0x72  (114)
.text.smpsHSPWM_ResetGPIO_LowSide   0x11776                0x4c            0x72  (114)
.text.smpsTimer_Enable     0x117c2                0x4a            0x6f  (111)
.text.gsirq_soft_traps_initialize   0x1180c                0x4a            0x6f  (111)
.text.smpsHSADC_Module_Reset   0x11856                0x44            0x66  (102)
.text.smpsUART_Enable      0x1189a                0x44            0x66  (102)
.text.smpsHSPWM_Disable    0x118de                0x44            0x66  (102)
.text.smpsHSADC_ADInput_SetTriggerSource   0x11922                0x42            0x63  (99)
.text                      0x11964                0x40            0x60  (96)
.text.smpsOSC_FRC_Initialize   0x119a4                0x40            0x60  (96)
.text.smpsPPS_RemapOutput   0x119e4                0x3c            0x5a  (90)
.text.smpsUART_GetStatus   0x11a20                0x3c            0x5a  (90)
.text.smpsUART_Disable     0x11a5c                0x3a            0x57  (87)
.text                      0x11a96               0x12c           0x1c2  (450)
.text.smpsUART_GetHandle   0x11bc2                0x30            0x48  (72)
.text.smpsTimer_PowerOn    0x11bf2                0x2c            0x42  (66)
.text.smpsTimer_PowerOff   0x11c1e                0x2a            0x3f  (63)
.text.smpsTimer_Dispose    0x11c48                0x28            0x3c  (60)
.text.gsirq_get_current_irq_priority_level   0x11c70                0x26            0x39  (57)
.text.smpsHSADC_Module_PowerDown   0x11c96                0x24            0x36  (54)
.text.smpsTimer_Disable    0x11cba                0x24            0x36  (54)
.text.smpsHSADC_Module_PowerUp   0x11cde                0x22            0x33  (51)
.text.smpsTimer_Reset      0x11d00                0x20            0x30  (48)
.text                      0x11d20                0x1c            0x2a  (42)
.text.smpsPPS_UnlockIO     0x11d3c                0x1a            0x27  (39)
.text.smpsPPS_LockIO       0x11d56                0x18            0x24  (36)
.text.smpsPPS_UnmapOutput   0x11d6e                0x16            0x21  (33)
.text.smpsPPS_UnmapInput   0x11d84                0x16            0x21  (33)
.text.smpsHSPWM_PowerUp    0x11d9a                0x14            0x1e  (30)
.text.smpsHSPWM_PowerDown   0x11dae                0x14            0x1e  (30)
.text.smpsPPS_RemapInput   0x11dc2                0x12            0x1b  (27)
.text                      0x11dd4                0x10            0x18  (24)
.text.smpsHSADC_Module_Disable   0x11de4                0x10            0x18  (24)
.text                      0x11df4                 0xc            0x12  (18)
.text.gsirq_get_current_irq_vector   0x11e00                 0xa             0xf  (15)
.text                      0x11e0a                 0xc            0x12  (18)

                 Total "program" memory used (bytes):        0x1aa21  (109089) 81%


"data" Memory  [Origin = 0x1000, Length = 0x4000]

section                    address      alignment gaps    total length  (dec)
-------                    -------      --------------    -------------------
reserve_data_0x1000         0x1000                0x1c            0x1c  (28)
reserve_data_0x101c         0x101c                 0x2             0x2  (2)
reserve_data_0x101e         0x101e                 0x2             0x2  (2)
reserve_data_0x1020         0x1020                 0x2             0x2  (2)
reserve_data_0x1022         0x1022                 0x2             0x2  (2)
reserve_data_0x1024         0x1024                 0x4             0x4  (4)
reserve_data_0x1028         0x1028                0x28            0x28  (40)
_06B839005e17ab92           0x1050                   0             0xa  (10)
_063929005e17ab93           0x105a                   0             0xa  (10)
_062499005e17ab92           0x1064                   0             0xa  (10)
_063F19005e17ab93           0x106e                   0             0xa  (10)
.nbss                       0x1078                   0             0x2  (2)
.bss                        0x107a                   0          0x21d8  (8664)
.data                       0x3252                   0            0xcc  (204)
.bss                        0x331e                   0            0x52  (82)
.data                       0x3370                   0            0x4c  (76)
.bss                        0x33bc                   0           0x11e  (286)
.data                       0x34da                   0            0x34  (52)
.bss                        0x350e                   0            0x30  (48)
.data                       0x353e                   0            0xb0  (176)
.bss                        0x35ee                   0            0x12  (18)
.pbss                       0x3600                   0            0x10  (16)
.data                       0x3610                   0             0xe  (14)
.bss                        0x361e                   0            0x16  (22)
.data                       0x3634                   0             0x6  (6)
.ybss                       0x4fd8                   0             0xa  (10)
.ybss                       0x4fe2                   0             0xa  (10)
.ybss                       0x4fec                   0             0xa  (10)
.ybss                       0x4ff6                   0             0xa  (10)

                 Total "data" memory used (bytes):         0x2662  (9826) 59%


Dynamic Memory Usage

region                     address                      maximum length  (dec)
------                     -------                      ---------------------
heap                             0                                   0  (0)
stack                       0x363a                              0x199e  (6558)

                 Maximum dynamic memory (bytes):         0x199e  (6558)


External Symbols in Data Memory (by address):

                    0x1050                  _cha_iloop_coefficients
                    0x105a                  _cha_vloop_coefficients
                    0x1064                  _chb_iloop_coefficients
                    0x106e                  _chb_vloop_coefficients
                    0x1078                  _adcc_usage
                    0x107a                  _iavg_buf_1
                    0x107c                  _iavg_cnt_1
                    0x107e                  _iavg_buf_2
                    0x1080                  _iavg_cnt_2
                    0x1082                  _cntbuff
                    0x1084                  _c4swbb_1
                    0x116c                  _c4swbb_2
                    0x1254                  _buffer
                    0x21f4                  _DebugUART
                    0x2204                  _uart_rx_buffer
                    0x2304                  _uart_tx_buffer
                    0x2404                  _uart
                    0x2430                  _rx_frame
                    0x24b0                  _rx_data
                    0x26b0                  _tx_buffer_head
                    0x26b2                  _tx_buffer_tail
                    0x26b4                  _pd_debug_string
                    0x26f4                  _debug_tx_buffer
                    0x2af4                  _gasDPM
                    0x2b10                  _gasPolicy_Engine
                    0x2b40                  _gasPRL
                    0x2b54                  _gasPRLRecvBuff
                    0x2b9c                  _gasExtendedMsgBuff
                    0x2db0                  _gasChunkSM
                    0x2dc8                  _gasPDTimers
                    0x2dec                  _gau8PortDisable
                    0x2dee                  _task_time_buffer
                    0x2eee                  _cpu_time_buffer
                    0x2fee                  _fltobj_UnderVoltageLockOut
                    0x3010                  _fltobj_OverVoltageLockOut
                    0x3032                  _fltobj_OverVoltageProtection_USBPort_1
                    0x3054                  _fltobj_OverCurrentProtection_USBPort_1
                    0x3076                  _fltobj_OverTempWarning_USBPort_1
                    0x3098                  _fltobj_OverTempProtection_USBPort_1
                    0x30ba                  _fltobj_RegulationError_USBPort_1
                    0x30dc                  _fltobj_OverVoltageProtection_USBPort_2
                    0x30fe                  _fltobj_OverCurrentProtection_USBPort_2
                    0x3120                  _fltobj_OverTempWarning_USBPort_2
                    0x3142                  _fltobj_OverTempProtection_USBPort_2
                    0x3164                  _fltobj_RegulationError_USBPort_2
                    0x3186                  _fltobj_CPUFailure
                    0x31a8                  _fltobj_CPULoadOverrun
                    0x31ca                  _fltobj_TaskExecutionFailure
                    0x31ec                  _fltobj_TaskTimeQuotaViolation
                    0x320e                  _fltobj_TaskMgrPeriodViolation
                    0x3230                  _fltobj_OSComponentFailure
                    0x3252                  _gasPortConfigurationData
                    0x3296                  _gasPortNormalConfigurationData
                    0x32da                  _gasPortRollbackConfigurationData
                    0x331e                  _tx_data_cid100
                    0x335e                  _cid100_update_counter
                    0x3360                  _tx_frame_cid100
                    0x3370                  _Task_Table
                    0x3382                  _task_queue_boot
                    0x3386                  _task_queue_boot_size
                    0x3388                  _task_queue_firmware_init
                    0x338e                  _task_queue_firmware_init_size
                    0x3390                  _task_queue_startup_sequence
                    0x3398                  _task_queue_startup_sequence_size
                    0x339a                  _task_queue_idle
                    0x33a2                  _task_queue_idle_size
                    0x33a4                  _task_queue_run
                    0x33ac                  _task_queue_run_size
                    0x33ae                  _task_queue_fault
                    0x33b4                  _task_queue_fault_size
                    0x33b6                  _task_queue_standby
                    0x33ba                  _task_queue_standby_size
                    0x33bc                  _task_mgr
                    0x33fa                  _cha_iloop_post_shift_A
                    0x33fc                  _cha_iloop_post_scaler
                    0x33fe                  _cha_iloop
                    0x3432                  _cha_vloop_post_shift_A
                    0x3434                  _cha_vloop_post_scaler
                    0x3436                  _cha_vloop
                    0x346a                  _chb_iloop_post_shift_A
                    0x346c                  _chb_iloop_post_scaler
                    0x346e                  _chb_iloop
                    0x34a2                  _chb_vloop_post_shift_A
                    0x34a4                  _chb_vloop_post_scaler
                    0x34a6                  _chb_vloop
                    0x34da                  _user_fault_object_list
                    0x34f2                  _user_fltobj_list_size
                    0x34f4                  _user_fault_object_init_functions
                    0x350c                  _user_fault_object_init_functions_size
                    0x350e                  _system_frequencies
                    0x3560                  _os_fault_object_list
                    0x356c                  _os_fltobj_list_size
                    0x356e                  _os_fault_object_init_functions
                    0x357a                  _os_fault_object_init_functions_size
                    0x3596                  _cha_iloop_ACoefficients_size
                    0x3598                  _cha_iloop_BCoefficients_size
                    0x359a                  _cha_iloop_ControlHistory_size
                    0x359c                  _cha_iloop_ErrorHistory_size
                    0x359e                  _cha_iloop_ACoefficients
                    0x35a2                  _cha_iloop_BCoefficients
                    0x35a8                  _cha_iloop_pre_scaler
                    0x35aa                  _cha_iloop_post_shift_B
                    0x35ac                  _cha_vloop_ACoefficients_size
                    0x35ae                  _cha_vloop_BCoefficients_size
                    0x35b0                  _cha_vloop_ControlHistory_size
                    0x35b2                  _cha_vloop_ErrorHistory_size
                    0x35b4                  _cha_vloop_ACoefficients
                    0x35b8                  _cha_vloop_BCoefficients
                    0x35be                  _cha_vloop_pre_scaler
                    0x35c0                  _cha_vloop_post_shift_B
                    0x35c2                  _chb_iloop_ACoefficients_size
                    0x35c4                  _chb_iloop_BCoefficients_size
                    0x35c6                  _chb_iloop_ControlHistory_size
                    0x35c8                  _chb_iloop_ErrorHistory_size
                    0x35ca                  _chb_iloop_ACoefficients
                    0x35ce                  _chb_iloop_BCoefficients
                    0x35d4                  _chb_iloop_pre_scaler
                    0x35d6                  _chb_iloop_post_shift_B
                    0x35d8                  _chb_vloop_ACoefficients_size
                    0x35da                  _chb_vloop_BCoefficients_size
                    0x35dc                  _chb_vloop_ControlHistory_size
                    0x35de                  _chb_vloop_ErrorHistory_size
                    0x35e0                  _chb_vloop_ACoefficients
                    0x35e4                  _chb_vloop_BCoefficients
                    0x35ea                  _chb_vloop_pre_scaler
                    0x35ec                  _chb_vloop_post_shift_B
                    0x35ee                  _gasTypeCcontrol
                    0x3600                  _traplog
                    0x3610                  _thermal_mgmt_state
                    0x3612                  _thermal_mgmt_substate
                    0x3614                  _thermal_rollback_threshold
                    0x3616                  _thermal_5v_only_threshold
                    0x3618                  _thermal_shutdown_threshold
                    0x361a                  _power_budget_watts
                    0x361e                  _thermal_shutdown_active
                    0x3620                  _port_pdo_update_required
                    0x3622                  _port_max_power
                    0x362a                  _taskPDStack_config
                    0x3630                  _application
                    0x3634                  _run_scheduler
                    0x3636                  _rx_data_size
                    0x3638                  _tx_data_cid100_size
                    0x4fd8                  _chb_vloop_histories
                    0x4fe2                  _chb_iloop_histories
                    0x4fec                  _cha_vloop_histories
                    0x4ff6                  _cha_iloop_histories

External Symbols in Data Memory (by name):

                    0x21f4                  _DebugUART
                    0x3370                  _Task_Table
                    0x1078                  _adcc_usage
                    0x3630                  _application
                    0x1254                  _buffer
                    0x1084                  _c4swbb_1
                    0x116c                  _c4swbb_2
                    0x33fe                  _cha_iloop
                    0x359e                  _cha_iloop_ACoefficients
                    0x3596                  _cha_iloop_ACoefficients_size
                    0x35a2                  _cha_iloop_BCoefficients
                    0x3598                  _cha_iloop_BCoefficients_size
                    0x359a                  _cha_iloop_ControlHistory_size
                    0x359c                  _cha_iloop_ErrorHistory_size
                    0x1050                  _cha_iloop_coefficients
                    0x4ff6                  _cha_iloop_histories
                    0x33fc                  _cha_iloop_post_scaler
                    0x33fa                  _cha_iloop_post_shift_A
                    0x35aa                  _cha_iloop_post_shift_B
                    0x35a8                  _cha_iloop_pre_scaler
                    0x3436                  _cha_vloop
                    0x35b4                  _cha_vloop_ACoefficients
                    0x35ac                  _cha_vloop_ACoefficients_size
                    0x35b8                  _cha_vloop_BCoefficients
                    0x35ae                  _cha_vloop_BCoefficients_size
                    0x35b0                  _cha_vloop_ControlHistory_size
                    0x35b2                  _cha_vloop_ErrorHistory_size
                    0x105a                  _cha_vloop_coefficients
                    0x4fec                  _cha_vloop_histories
                    0x3434                  _cha_vloop_post_scaler
                    0x3432                  _cha_vloop_post_shift_A
                    0x35c0                  _cha_vloop_post_shift_B
                    0x35be                  _cha_vloop_pre_scaler
                    0x346e                  _chb_iloop
                    0x35ca                  _chb_iloop_ACoefficients
                    0x35c2                  _chb_iloop_ACoefficients_size
                    0x35ce                  _chb_iloop_BCoefficients
                    0x35c4                  _chb_iloop_BCoefficients_size
                    0x35c6                  _chb_iloop_ControlHistory_size
                    0x35c8                  _chb_iloop_ErrorHistory_size
                    0x1064                  _chb_iloop_coefficients
                    0x4fe2                  _chb_iloop_histories
                    0x346c                  _chb_iloop_post_scaler
                    0x346a                  _chb_iloop_post_shift_A
                    0x35d6                  _chb_iloop_post_shift_B
                    0x35d4                  _chb_iloop_pre_scaler
                    0x34a6                  _chb_vloop
                    0x35e0                  _chb_vloop_ACoefficients
                    0x35d8                  _chb_vloop_ACoefficients_size
                    0x35e4                  _chb_vloop_BCoefficients
                    0x35da                  _chb_vloop_BCoefficients_size
                    0x35dc                  _chb_vloop_ControlHistory_size
                    0x35de                  _chb_vloop_ErrorHistory_size
                    0x106e                  _chb_vloop_coefficients
                    0x4fd8                  _chb_vloop_histories
                    0x34a4                  _chb_vloop_post_scaler
                    0x34a2                  _chb_vloop_post_shift_A
                    0x35ec                  _chb_vloop_post_shift_B
                    0x35ea                  _chb_vloop_pre_scaler
                    0x335e                  _cid100_update_counter
                    0x1082                  _cntbuff
                    0x2eee                  _cpu_time_buffer
                    0x26f4                  _debug_tx_buffer
                    0x3186                  _fltobj_CPUFailure
                    0x31a8                  _fltobj_CPULoadOverrun
                    0x3230                  _fltobj_OSComponentFailure
                    0x3054                  _fltobj_OverCurrentProtection_USBPort_1
                    0x30fe                  _fltobj_OverCurrentProtection_USBPort_2
                    0x3098                  _fltobj_OverTempProtection_USBPort_1
                    0x3142                  _fltobj_OverTempProtection_USBPort_2
                    0x3076                  _fltobj_OverTempWarning_USBPort_1
                    0x3120                  _fltobj_OverTempWarning_USBPort_2
                    0x3010                  _fltobj_OverVoltageLockOut
                    0x3032                  _fltobj_OverVoltageProtection_USBPort_1
                    0x30dc                  _fltobj_OverVoltageProtection_USBPort_2
                    0x30ba                  _fltobj_RegulationError_USBPort_1
                    0x3164                  _fltobj_RegulationError_USBPort_2
                    0x31ca                  _fltobj_TaskExecutionFailure
                    0x320e                  _fltobj_TaskMgrPeriodViolation
                    0x31ec                  _fltobj_TaskTimeQuotaViolation
                    0x2fee                  _fltobj_UnderVoltageLockOut
                    0x2db0                  _gasChunkSM
                    0x2af4                  _gasDPM
                    0x2b9c                  _gasExtendedMsgBuff
                    0x2dc8                  _gasPDTimers
                    0x2b40                  _gasPRL
                    0x2b54                  _gasPRLRecvBuff
                    0x2b10                  _gasPolicy_Engine
                    0x3252                  _gasPortConfigurationData
                    0x3296                  _gasPortNormalConfigurationData
                    0x32da                  _gasPortRollbackConfigurationData
                    0x35ee                  _gasTypeCcontrol
                    0x2dec                  _gau8PortDisable
                    0x107a                  _iavg_buf_1
                    0x107e                  _iavg_buf_2
                    0x107c                  _iavg_cnt_1
                    0x1080                  _iavg_cnt_2
                    0x356e                  _os_fault_object_init_functions
                    0x357a                  _os_fault_object_init_functions_size
                    0x3560                  _os_fault_object_list
                    0x356c                  _os_fltobj_list_size
                    0x26b4                  _pd_debug_string
                    0x3622                  _port_max_power
                    0x3620                  _port_pdo_update_required
                    0x361a                  _power_budget_watts
                    0x3634                  _run_scheduler
                    0x24b0                  _rx_data
                    0x3636                  _rx_data_size
                    0x2430                  _rx_frame
                    0x350e                  _system_frequencies
                    0x362a                  _taskPDStack_config
                    0x33bc                  _task_mgr
                    0x3382                  _task_queue_boot
                    0x3386                  _task_queue_boot_size
                    0x33ae                  _task_queue_fault
                    0x33b4                  _task_queue_fault_size
                    0x3388                  _task_queue_firmware_init
                    0x338e                  _task_queue_firmware_init_size
                    0x339a                  _task_queue_idle
                    0x33a2                  _task_queue_idle_size
                    0x33a4                  _task_queue_run
                    0x33ac                  _task_queue_run_size
                    0x33b6                  _task_queue_standby
                    0x33ba                  _task_queue_standby_size
                    0x3390                  _task_queue_startup_sequence
                    0x3398                  _task_queue_startup_sequence_size
                    0x2dee                  _task_time_buffer
                    0x3616                  _thermal_5v_only_threshold
                    0x3610                  _thermal_mgmt_state
                    0x3612                  _thermal_mgmt_substate
                    0x3614                  _thermal_rollback_threshold
                    0x361e                  _thermal_shutdown_active
                    0x3618                  _thermal_shutdown_threshold
                    0x3600                  _traplog
                    0x26b0                  _tx_buffer_head
                    0x26b2                  _tx_buffer_tail
                    0x331e                  _tx_data_cid100
                    0x3638                  _tx_data_cid100_size
                    0x3360                  _tx_frame_cid100
                    0x2404                  _uart
                    0x2204                  _uart_rx_buffer
                    0x2304                  _uart_tx_buffer
                    0x34f4                  _user_fault_object_init_functions
                    0x350c                  _user_fault_object_init_functions_size
                    0x34da                  _user_fault_object_list
                    0x34f2                  _user_fltobj_list_size

External Symbols in Program Memory (by address):

                  0x000200                  __resetPRI
                  0x00023c                  __psv_init
                  0x000248                  __data_init
                  0x000248                  __data_init_extended
                  0x0003fe                  __ReservedTrap5
                  0x000424                  __ReservedTrap7
                  0x00044a                  __HardTrapError
                  0x000470                  __SoftTrapError
                  0x000496                  __OscillatorFail
                  0x0004bc                  __AddressError
                  0x0004e2                  __StackError
                  0x000508                  __MathError
                  0x00052e                  __U3RXInterrupt
                  0x000772                  __U3EInterrupt
                  0x0007dc                  __CCT7Interrupt
                  0x00080a                  __ADCAN16Interrupt
                  0x000844                  __ADCAN18Interrupt
                  0x000872                  __ADCAN4Interrupt
                  0x0008b0                  __ADCAN9Interrupt
                  0x0008de                  __DefaultInterrupt
                  0x0008e4                  ___divsf3
                  0x000968                  ___divsi3
                  0x000986                  ___eqsf2
                  0x000986                  ___lesf2
                  0x000986                  ___ltsf2
                  0x00098a                  ___fixunssfsi
                  0x0009c0                  ___floatunsisf
                  0x0009c4                  __fpack
                  0x000a10                  __funpack
                  0x000a3a                  __funpack2
                  0x000a4a                  __fPropagateNaN
                  0x000a5c                  __fbopExit
                  0x000a64                  __fbopReturnNaN
                  0x000a6a                  ___mulsf3
                  0x000ad2                  ___udivsi3
                  0x000af2                  __fcompare
                  0x000b28                  ___floatundisf
                  0x000b86                  sprintf_cdnopuxX.CHeo:_prout
                  0x000b94                  __sprintf_cdnopuxX
                  0x000bb2                  _memcpy
                  0x000bc0                  ___Printf_cdnopuxX
                  0x000d24                  _strchr
                  0x000d3c                  __Puttxt
                  0x000eb4                  __Vacopy
                  0x000eb8                  ___Putfld_cdnopuxX
                  0x0010dc                  __Litob
                  0x00133a                  ___umodsi3
                  0x00138c                  ___udivmoddi3
                  0x001472                  ___udivdi3
                  0x001480                  ___umoddi3
                  0x001488                  ___divdi3
                  0x0014e8                  ___moddi3
                  0x00198c                  _au16BBTxRiseDACValues
                  0x0019a4                  _au16BBTxFallDACValues
                  0x0019bc                  _au8BMCEncoderRegValues
                  0x00222c                  _au16CCThrVal
                  0x0024f4                  _TypeC_SubStateChange_TimerCB
                  0x002504                  _TypeC_SetCCDebounceVariable
                  0x002572                  _TypeC_HandleISR
                  0x002878                  _TypeC_ConfigCCComp
                  0x0028d0                  _TypeC_SetVBUSCompONOFF
                  0x002934                  _TypeC_SetCCSampleEnable
                  0x0029b2                  _TypeC_SetPowerRole
                  0x002a32                  _TypeC_SetDataRole
                  0x002a4c                  _TypeC_EnabDisVCONN
                  0x002c64                  _TypeC_VCONN_ON_IntrHandler
                  0x002d68                  _TypeC_SrcIntrHandler
                  0x002fc4                  _TypeC_SetDefaultRpValue
                  0x0031f8                  _TypeC_Reset_VCONNDIS_Settings
                  0x003346                  _TypeC_CCVBUSIntrHandler
                  0x003440                  _TypeC_VCONNDis_On_IntrHandler
                  0x0035ac                  _TypeC_SetRpCollAvoidance
                  0x0037ca                  _TypeC_CheckRpValCollAvoidance
                  0x003808                  _TypeC_KillTypeCTimer
                  0x003824                  _TypeC_ConfigureVBUSThr
                  0x00395e                  _TypeC_VBUSDrive
                  0x003978                  _TypeC_VCONNONErrorTimerCB
                  0x003a0a                  _TypeC_InitPort
                  0x003f02                  _TypeC_RunStateMachine
                  0x0046c2                  _TypeC_StateChange_TimerCB
                  0x0046d8                  _PRL_ChunkStateChange_TimerCB
                  0x0046fa                  _PRL_RCHChunkSMStateChange_RCHCB
                  0x004748                  _PRL_CASinkTxTimerOut_TimerCB
                  0x0047e2                  _PRL_TCHChunkSMStateChange_TCHCB
                  0x004932                  _PRL_Init
                  0x004be2                  _PRL_UpdateSpecAndDeviceRoles
                  0x004c38                  _PRL_FormSOPTypeMsgHeader
                  0x004c66                  _PRL_FormNonSOPTypeMsgHeader
                  0x004c84                  _PRL_BuildTxPacket
                  0x004d8c                  _PRL_TransmitMsg
                  0x0050ea                  _PRL_SendCableorHardReset
                  0x00518a                  _PRL_EnableRx
                  0x0051d2                  _PRL_HandleISR
                  0x005384                  _PRL_IncrementMsgID
                  0x005408                  _PRL_ProcessRxFIFOISR
                  0x005444                  _PRL_TxRxMsgID_Reset
                  0x005496                  _PRL_ProtocolspecificSOPReset
                  0x0054e8                  _PRL_ProtocolResetAllSOPs
                  0x00552a                  _PRL_HRorCRCompltIndicationFromPE
                  0x005568                  _PRL_PHYLayerReset
                  0x005584                  _PRL_ProcessRecvdMsg
                  0x005a10                  _PRL_ReceiveMsg
                  0x005b20                  _PRL_IsAnyMsgPendinginPRL
                  0x005b42                  _PRL_SetCollisionAvoidance
                  0x005bb2                  _PRL_SinkIntAMS
                  0x005be4                  _PRL_CommitPendingTxOnCAISR
                  0x005c5c                  _PRL_UpdateTotalChunkNumVar
                  0x005c94                  _PRL_ResetChunkSM
                  0x005cce                  _PRL_TxOriginalCBfromCH
                  0x005d44                  _PRL_RunChunkStateMachine
                  0x006002                  _PRL_FormRequestChunkMsgHeader
                  0x00608a                  _PRL_KillCAorChunkSMTimer
                  0x0060a6                  _PRL_ConfigureBISTCarrierMode
                  0x0060f6                  _PRL_ChangeTxState
                  0x006112                  _PRL_ProtocolReset
                  0x006174                  _PE_StateChange_TransmitCB
                  0x0061ac                  _PE_StateChange_TimerCB
                  0x0061c0                  _PE_SubStateChange_TimerCB
                  0x0061d4                  _PE_InitPort
                  0x00622a                  _PE_IsMsgUnsupported
                  0x0062b0                  _PE_SendNotSupportedOrRejectMsg
                  0x0062e2                  _PE_SendHardResetMsg
                  0x006312                  _PE_SendSoftResetMsg
                  0x006342                  _PE_ValidateMessage
                  0x00641c                  _PE_HandleRcvdMsgAndTimeoutEvents
                  0x00644c                  _PE_HandleUnExpectedMsg
                  0x0064a8                  _PE_ReceiveMsgHandler
                  0x006cb2                  _PE_RunCommonStateMachine
                  0x006eb8                  _PE_RunStateMachine
                  0x007032                  _PE_SetHardResetReceiveFlag
                  0x00703e                  _PE_SubStateChangeAndTimeoutValidateCB
                  0x007078                  _PE_NoResponseTimerCB
                  0x007092                  _PE_FindVDMStateActiveFlag
                  0x0070c0                  _PE_KillPolicyEngineTimer
                  0x0070de                  _PE_SrcRunStateMachine
                  0x007d2e                  _os_FaultObjects_Initialize
                  0x007dbe                  _CheckFaultCondition
                  0x007f04                  _SetFaultCondition
                  0x007fec                  _CaptureCPUInterruptStatus
                  0x00811a                  _CheckCPUResetRootCause
                  0x00818c                  _ExecFaultHandler
                  0x008208                  _ExecGlobalFaultFlagRelease
                  0x008260                  _ExecFaultFlagReleaseHandler
                  0x008288                  _exec_FaultCheckAll
                  0x0087d2                  _UPD_RegWriteByte
                  0x008810                  _UPD_RegWriteWord
                  0x00884e                  _UPD_RegReadByte
                  0x008890                  _UPD_RegReadWord
                  0x0088d2                  _UPD_RegByteSetBit
                  0x008950                  _UPD_RegByteClearBit
                  0x0089d0                  _UPD_RegisterWrite
                  0x008a14                  _UPD_RegisterRead
                  0x008a5c                  _UPD_RegisterWriteISR
                  0x008a96                  _UPD_RegisterReadISR
                  0x008ad4                  _UPD_GPIOEnableDisable
                  0x008bc8                  _UPD_GPIOSetDirection
                  0x008cbc                  _UPD_GPIOSetBufferType
                  0x008db0                  _UPD_GPIOSetClearOutput
                  0x008ea4                  _UPD_GPIOSetIntrAlert
                  0x008f9a                  _UPD_ConfigurePIODebounceCount
                  0x008fec                  _UPD_GPIOSetDebounce
                  0x009118                  _UPD_GPIOInit
                  0x009156                  _UPD_PIOHandleISR
                  0x0091b8                  _exec_PowerControl
                  0x009344                  _reset_PowerControl
                  0x009382                  _reset_USBPort_1
                  0x0093a4                  _reset_USBPort_2
                  0x0093c6                  _init_ISR_USBport_1
                  0x009460                  _init_ISR_USBport_2
                  0x0094da                  _init_USBport_1
                  0x009750                  _init_USBport_2
                  0x0099c2                  _init_PowerControl
                  0x009b9a                  _PDTimer_Init
                  0x009bd0                  _PDTimer_Start
                  0x009d48                  _PDTimer_WaitforTicks
                  0x009e9e                  _PDTimer_Kill
                  0x009ece                  _PDTimer_KillPortTimers
                  0x00a044                  _PDTimer_InterruptHandler
                  0x00a188                  _DebugUART_TimingUpdate
                  0x00a1a2                  _smpsDebugUART_Initialize
                  0x00a27e                  _smpsDebugUART_InitializeFrame
                  0x00a2a6                  _smpsDebugUART_SendFrame
                  0x00a382                  _smpsDebugUART_ProcessDefaultCID
                  0x00a622                  _smpsDebugUART_Execute
                  0x00a75c                  _c4SWBB_TimingUpdate
                  0x00a784                  _exec_4SWBB_PowerController
                  0x00ab6a                  _c4SWBB_shut_down
                  0x00aba4                  _reset_4SWBB_PowerController
                  0x00ac2c                  _init_4SWBB_PowerController
                  0x00acb0                  _smpsHSPWM_Module_Initialize
                  0x00b1da                  _DPM_Init
                  0x00b228                  _DPM_StateMachine
                  0x00b23c                  _DPM_GetTypeCStates
                  0x00b24c                  _DPM_GetPoweredCablePresence
                  0x00b25a                  _DPM_SetTypeCState
                  0x00b26a                  _DPM_SetPortPower
                  0x00b29a                  _DPM_ConfigurePwrFault
                  0x00b29c                  _DPM_VConnOnOff
                  0x00b2a6                  _DPM_GetVBUSVoltage
                  0x00b2dc                  _DPM_VBusOnOff
                  0x00b306                  _DPM_ValidateRequest
                  0x00b3ca                  _DPM_CurrentCutDown
                  0x00b3f0                  _DPM_ChangeCapbilities
                  0x00b442                  _DPM_Get_Source_Capabilities
                  0x00b52c                  _DPM_StoreVDMECableData
                  0x00b57e                  _DPM_Evaluate_VCONN_Swap
                  0x00b580                  _DPM_IsPort_VCONN_Source
                  0x00b592                  _DPM_VBUSOnOffTimerCB
                  0x00b5bc                  _DPM_SrcReadyTimerCB
                  0x00b602                  _DPM_VCONNONTimerErrorCB
                  0x00b6b8                  _DPM_VCONNOFFErrorTimerCB
                  0x00b6dc                  _DPM_ResetVCONNErrorCnt
                  0x00b6e8                  _DPM_IsHardResetInProgress
                  0x00b6f8                  _c4swbb_pwm_module_initialize
                  0x00b786                  _c4swbb_pwm_generators_initialize
                  0x00b95a                  _c4swbb_pwm_enable
                  0x00b9b8                  _c4swbb_pwm_disable
                  0x00b9f0                  _c4swbb_pwm_hold
                  0x00ba20                  _c4swbb_pwm_release
                  0x00ba50                  _c4swbb_adc_module_initialize
                  0x00baba                  _c4swbb_adc_inputs_initialize
                  0x00bbe8                  _c4swbb_adc_enable
                  0x00bc08                  _smpsHSPWM_Channel_Initialize
                  0x00c0e6                  _flt_UnderVoltageLockOut_Initialize
                  0x00c140                  _flt_OverVoltageLockOut_Initialize
                  0x00c19a                  _flt_OverVoltageProtection_USBPort_1_Initialize
                  0x00c1f4                  _flt_OverCurrentProtection_USBPort_1_Initialize
                  0x00c24e                  _flt_OverTempWarning_USBPort_1_Initialize
                  0x00c2a4                  _flt_OverTempProtection_USBPort_1_Initialize
                  0x00c2fc                  _flt_RegulationError_USBPort_1_Initialize
                  0x00c358                  _flt_OverVoltageProtection_USBPort_2_Initialize
                  0x00c3b2                  _flt_OverCurrentProtection_USBPort_2_Initialize
                  0x00c40c                  _flt_OverTempWarning_USBPort_2_Initialize
                  0x00c462                  _flt_OverTempProtection_USBPort_2_Initialize
                  0x00c4ba                  _flt_RegulationError_USBPort_2_Initialize
                  0x00c516                  _configure_upd350_gpio
                  0x00c566                  _port_led_on
                  0x00c56e                  _port_led_off
                  0x00c576                  _hw_portpower_init
                  0x00c616                  _hw_portpower_driveVBUS
                  0x00c7ee                  _hw_portpower_enab_dis_VBUSDischarge
                  0x00c808                  _CRITICAL_SECTION_ENTER
                  0x00c80a                  _CRITICAL_SECTION_EXIT
                  0x00c80c                  _updalert_init
                  0x00c820                  _upd_irq_asserted
                  0x00c83c                  _updreset_init
                  0x00c84a                  _updreset_thru_gpio
                  0x00c854                  _hw_spi_init
                  0x00c858                  _hw_spi_cs_low
                  0x00c86a                  _hw_spi_cs_high
                  0x00c87c                  _SPI_Write
                  0x00c882                  _SPI_Read
                  0x00c88a                  _hook_policy_engine_pre_process
                  0x00c88c                  _hook_pdo_request_post_process_valid
                  0x00c890                  _hook_notify_pd_events_cb
                  0x00c8a6                  _hook_function_get_temperature_in_c
                  0x00c8a8                  _hook_debug_print_string
                  0x00c8ac                  _hook_debug_u8
                  0x00c8c8                  _hook_debug_u16
                  0x00c8e2                  _hook_debug_u32
                  0x00c8fc                  _hook_debug_i32
                  0x00c916                  _smpsUART_OpenPort
                  0x00ccf2                  _check_power_budget
                  0x00ce30                  _update_all_port_pdos
                  0x00ce84                  _reset_port_pdos
                  0x00cf02                  _update_single_port_pdos
                  0x00cf56                  _power_management_state_machine
                  0x00d0ca                  _smpsUART_Initialize
                  0x00d498                  _smpsGPIO_WriteConfig
                  0x00d836                  _smpsGPIO_ClearConfig
                  0x00db6e                  _smpsOSC_GetFrequencies
                  0x00dea0                  _os_ProcessTaskQueue
                  0x00df80                  _os_CheckOperationModeStatus
                  0x00e102                  _os_TaskManager_Initialize
                  0x00e18c                  _PD_CheckAndDisablePorts
                  0x00e25e                  _PD_StateMachinesInit
                  0x00e296                  _PD_Init
                  0x00e3de                  _PD_Run
                  0x00e668                  _smpsUART_ReadFIFO
                  0x00e8b6                  _smpsHSPWM_IndependentPWM_Initialize
                  0x00eae2                  _CPUFailureObject_Initialize
                  0x00eb2e                  _CPULoadOverrunFaultObject_Initialize
                  0x00eb76                  _TaskExecutionFaultObject_Initialize
                  0x00ebbe                  _TaskTimeQuotaViolationFaultObject_Initialize
                  0x00ec18                  _TaskMgrPeriodViolationFaultObject_Initialize
                  0x00ec62                  _OSComponentFailureFaultObject_Initialize
                  0x00ecae                  _smpsCRC_Initialize
                  0x00ee72                  _smpsHSADC_Module_Initialize
                  0x00f018                  _smpsOSC_Initialize
                  0x00f1b0                  _task_DebugUART_Execute
                  0x00f2de                  _task_DebugUART_Initialize
                  0x00f328                  _OS_Execute
                  0x00f492                  _smpsUART_WriteFIFO
                  0x00f5f4                  _smpsHSADC_ADComp_Initialize
                  0x00f754                  _smpsUART_GetBaudrate
                  0x00f8b0                  _SPI2_Initialize
                  0x00f8fc                  _SPI2_Exchange
                  0x00f90e                  _SPI2_ExchangeBuffer
                  0x00f97a                  _SPI2_Exchange8bit
                  0x00f98a                  _SPI2_Exchange8bitBuffer
                  0x00f9f6                  _SPI2_StatusGet
                  0x00f9fa                  _smpsCRC_GetStandard_Data8CRC16
                  0x00fb2e                  _smpsHSADC_ADInput_SetMode
                  0x00fc48                  _smpsTimer_Initialize16b
                  0x00fd3e                  _DEBUG_init
                  0x00fd90                  _DEBUG_write
                  0x00fdb2                  _DEBUG_print
                  0x00fde6                  _debug_uart_tx
                  0x00fe0e                  _debug_uart_tx_flush
                  0x00fe2e                  _smpsHSADC_Core_PowerUp
                  0x00ff1c                  _smpsHSADC_ADInput_SetInterrupt
                  0x010008                  _cha_iloop_Init
                  0x0100f0                  _cha_vloop_Init
                  0x0101d8                  _chb_iloop_Init
                  0x0102c0                  _chb_vloop_Init
                  0x0103a8                  _smpsUART_GetBaudrateRegValue
                  0x010488                  _gsirq_irq_initialize
                  0x010552                  _smpsUART_SetBaudrate
                  0x010614                  _HookDebugBufferInt32
                  0x010644                  _HookDebugBufferUint32
                  0x010674                  _HookDebugBufferUint16
                  0x0106a4                  _HookDebugBufferUint8
                  0x0106d4                  _smpsOSC_FRC_DefaultInitialize
                  0x01078c                  _cha_iloop_Update
                  0x01080a                  _cha_iloop_Reset
                  0x010822                  _cha_iloop_Precharge
                  0x010842                  _cha_vloop_Update
                  0x0108c0                  _cha_vloop_Reset
                  0x0108d8                  _cha_vloop_Precharge
                  0x0108f8                  _chb_iloop_Update
                  0x010976                  _chb_iloop_Reset
                  0x01098e                  _chb_iloop_Precharge
                  0x0109ae                  _chb_vloop_Update
                  0x010a2c                  _chb_vloop_Reset
                  0x010a44                  _chb_vloop_Precharge
                  0x010a64                  _OS_Initialize
                  0x010a84                  _CLOCK_Initialize
                  0x010ac4                  _DEVICE_Initialize
                  0x010aee                  _DEVICE_Reset
                  0x010b14                  _smpsTimer_GetTimerConfig
                  0x010bbe                  _smpsHSPWM_ChannelTiming_Initialize
                  0x010c68                  _UPDIntr_AlertHandler
                  0x010cfc                  _smpsHSADC_ADFilter_Initialize
                  0x010d8c                  _smpsUART_Dispose
                  0x010e18                  _smpsHSPWM_Enable
                  0x010ea4                  _smpsHSADC_ADInput_SetTriggerMode
                  0x010f28                  _smpsOSC_AUXCLK_Initialize
                  0x010fac                  _smpsHSADC_ADInput_Initialize
                  0x011028                  _smpsUART_PowerOn
                  0x0110a4                  _smpsUART_GetStandardCRC16
                  0x01111c                  _smpsUART_PowerOff
                  0x01118c                  _smpsHSADC_Cores_CheckReady
                  0x0111f8                  _smpsUART_Close
                  0x01125a                  _smpsHSPWM_SetDutyCycle
                  0x0112ba                  _OSTimer_Initialize
                  0x0112fe                  _OSTimer_Start
                  0x011316                  _smpsGPIO_SetIOConfig
                  0x01136c                  _task_PDStack
                  0x0113ae                  _init_taskPDStack
                  0x0113c0                  _smpsGPIO_Initialize
                  0x011414                  _c4swbb_pwm_update
                  0x011466                  _smpsHSADC_Module_Enable
                  0x0114b8                  _smpsPMD_SetPowerStateAll
                  0x01150a                  _smpsOSC_AUXCLK_DefaultInitialize
                  0x01155a                  _smpsHSPWM_OVR_Hold
                  0x0115a8                  _smpsHSPWM_OVR_Release
                  0x0115f6                  _smpsHSPWM_OVR_ReleaseHighSide
                  0x011644                  _smpsHSPWM_OVR_ReleaseLowSide
                  0x011692                  _smpsHSPWM_SetGPIO_HighSide
                  0x0116de                  _smpsHSPWM_ResetGPIO_HighSide
                  0x01172a                  _smpsHSPWM_SetGPIO_LowSide
                  0x011776                  _smpsHSPWM_ResetGPIO_LowSide
                  0x0117c2                  _smpsTimer_Enable
                  0x01180c                  _gsirq_soft_traps_initialize
                  0x011856                  _smpsHSADC_Module_Reset
                  0x01189a                  _smpsUART_Enable
                  0x0118de                  _smpsHSPWM_Disable
                  0x011922                  _smpsHSADC_ADInput_SetTriggerSource
                  0x011964                  _init_SoftTraps
                  0x01198a                  _DefaultTrapHandler
                  0x0119a4                  _smpsOSC_FRC_Initialize
                  0x0119e4                  _smpsPPS_RemapOutput
                  0x011a20                  _smpsUART_GetStatus
                  0x011a5c                  _smpsUART_Disable
                  0x011a96                  _APPLICATION_Initialize
                  0x011aaa                  _APPLICATION_Reset
                  0x011abe                  _APPLICATION_CaptureSystemStatus
                  0x011aca                  _IRQ_initialize
                  0x011afe                  _PD_TMR_Initialize
                  0x011b30                  _PD_GenericInitialize
                  0x011b3a                  _PD_InitializeInternalGlobals
                  0x011b62                  _smpsDebugUART_ProcessUserCID
                  0x011b92                  _MainOscillator_Initialize
                  0x011baa                  _AuxOscillator_Initialize
                  0x011bc2                  _smpsUART_GetHandle
                  0x011bf2                  _smpsTimer_PowerOn
                  0x011c1e                  _smpsTimer_PowerOff
                  0x011c48                  _smpsTimer_Dispose
                  0x011c70                  _gsirq_get_current_irq_priority_level
                  0x011c96                  _smpsHSADC_Module_PowerDown
                  0x011cba                  _smpsTimer_Disable
                  0x011cde                  _smpsHSADC_Module_PowerUp
                  0x011d00                  _smpsTimer_Reset
                  0x011d20                  _DSP_initialize
                  0x011d3c                  _smpsPPS_UnlockIO
                  0x011d56                  _smpsPPS_LockIO
                  0x011d6e                  _smpsPPS_UnmapOutput
                  0x011d84                  _smpsPPS_UnmapInput
                  0x011d9a                  _smpsHSPWM_PowerUp
                  0x011dae                  _smpsHSPWM_PowerDown
                  0x011dc2                  _smpsPPS_RemapInput
                  0x011dd4                  _task_queue_idle_init
                  0x011dd8                  _task_queue_run_init
                  0x011ddc                  _task_queue_fault_init
                  0x011de0                  _task_queue_standby_init
                  0x011de4                  _smpsHSADC_Module_Disable
                  0x011df4                  _main
                  0x011e00                  _gsirq_get_current_irq_vector
                  0x011e0a                  _task_Idle
                  0x011e0e                  _GPIO_initialize
                  0x011e12                  _ExecuteUserStartupCode
                  0x011e14                  _PD_InitializeConfigGlobals
                  0x015f00                  __FSEC.sec

External Symbols in Program Memory (by name):

                  0x011abe                  _APPLICATION_CaptureSystemStatus
                  0x011a96                  _APPLICATION_Initialize
                  0x011aaa                  _APPLICATION_Reset
                  0x011baa                  _AuxOscillator_Initialize
                  0x010a84                  _CLOCK_Initialize
                  0x00eae2                  _CPUFailureObject_Initialize
                  0x00eb2e                  _CPULoadOverrunFaultObject_Initialize
                  0x00c808                  _CRITICAL_SECTION_ENTER
                  0x00c80a                  _CRITICAL_SECTION_EXIT
                  0x007fec                  _CaptureCPUInterruptStatus
                  0x00811a                  _CheckCPUResetRootCause
                  0x007dbe                  _CheckFaultCondition
                  0x00fd3e                  _DEBUG_init
                  0x00fdb2                  _DEBUG_print
                  0x00fd90                  _DEBUG_write
                  0x010ac4                  _DEVICE_Initialize
                  0x010aee                  _DEVICE_Reset
                  0x00b3f0                  _DPM_ChangeCapbilities
                  0x00b29a                  _DPM_ConfigurePwrFault
                  0x00b3ca                  _DPM_CurrentCutDown
                  0x00b57e                  _DPM_Evaluate_VCONN_Swap
                  0x00b24c                  _DPM_GetPoweredCablePresence
                  0x00b23c                  _DPM_GetTypeCStates
                  0x00b2a6                  _DPM_GetVBUSVoltage
                  0x00b442                  _DPM_Get_Source_Capabilities
                  0x00b1da                  _DPM_Init
                  0x00b6e8                  _DPM_IsHardResetInProgress
                  0x00b580                  _DPM_IsPort_VCONN_Source
                  0x00b6dc                  _DPM_ResetVCONNErrorCnt
                  0x00b26a                  _DPM_SetPortPower
                  0x00b25a                  _DPM_SetTypeCState
                  0x00b5bc                  _DPM_SrcReadyTimerCB
                  0x00b228                  _DPM_StateMachine
                  0x00b52c                  _DPM_StoreVDMECableData
                  0x00b592                  _DPM_VBUSOnOffTimerCB
                  0x00b2dc                  _DPM_VBusOnOff
                  0x00b6b8                  _DPM_VCONNOFFErrorTimerCB
                  0x00b602                  _DPM_VCONNONTimerErrorCB
                  0x00b29c                  _DPM_VConnOnOff
                  0x00b306                  _DPM_ValidateRequest
                  0x011d20                  _DSP_initialize
                  0x00a188                  _DebugUART_TimingUpdate
                  0x01198a                  _DefaultTrapHandler
                  0x008260                  _ExecFaultFlagReleaseHandler
                  0x00818c                  _ExecFaultHandler
                  0x008208                  _ExecGlobalFaultFlagRelease
                  0x011e12                  _ExecuteUserStartupCode
                  0x011e0e                  _GPIO_initialize
                  0x010614                  _HookDebugBufferInt32
                  0x010674                  _HookDebugBufferUint16
                  0x010644                  _HookDebugBufferUint32
                  0x0106a4                  _HookDebugBufferUint8
                  0x011aca                  _IRQ_initialize
                  0x011b92                  _MainOscillator_Initialize
                  0x00ec62                  _OSComponentFailureFaultObject_Initialize
                  0x0112ba                  _OSTimer_Initialize
                  0x0112fe                  _OSTimer_Start
                  0x00f328                  _OS_Execute
                  0x010a64                  _OS_Initialize
                  0x009b9a                  _PDTimer_Init
                  0x00a044                  _PDTimer_InterruptHandler
                  0x009e9e                  _PDTimer_Kill
                  0x009ece                  _PDTimer_KillPortTimers
                  0x009bd0                  _PDTimer_Start
                  0x009d48                  _PDTimer_WaitforTicks
                  0x00e18c                  _PD_CheckAndDisablePorts
                  0x011b30                  _PD_GenericInitialize
                  0x00e296                  _PD_Init
                  0x011e14                  _PD_InitializeConfigGlobals
                  0x011b3a                  _PD_InitializeInternalGlobals
                  0x00e3de                  _PD_Run
                  0x00e25e                  _PD_StateMachinesInit
                  0x011afe                  _PD_TMR_Initialize
                  0x007092                  _PE_FindVDMStateActiveFlag
                  0x00641c                  _PE_HandleRcvdMsgAndTimeoutEvents
                  0x00644c                  _PE_HandleUnExpectedMsg
                  0x0061d4                  _PE_InitPort
                  0x00622a                  _PE_IsMsgUnsupported
                  0x0070c0                  _PE_KillPolicyEngineTimer
                  0x007078                  _PE_NoResponseTimerCB
                  0x0064a8                  _PE_ReceiveMsgHandler
                  0x006cb2                  _PE_RunCommonStateMachine
                  0x006eb8                  _PE_RunStateMachine
                  0x0062e2                  _PE_SendHardResetMsg
                  0x0062b0                  _PE_SendNotSupportedOrRejectMsg
                  0x006312                  _PE_SendSoftResetMsg
                  0x007032                  _PE_SetHardResetReceiveFlag
                  0x0070de                  _PE_SrcRunStateMachine
                  0x0061ac                  _PE_StateChange_TimerCB
                  0x006174                  _PE_StateChange_TransmitCB
                  0x00703e                  _PE_SubStateChangeAndTimeoutValidateCB
                  0x0061c0                  _PE_SubStateChange_TimerCB
                  0x006342                  _PE_ValidateMessage
                  0x004c84                  _PRL_BuildTxPacket
                  0x004748                  _PRL_CASinkTxTimerOut_TimerCB
                  0x0060f6                  _PRL_ChangeTxState
                  0x0046d8                  _PRL_ChunkStateChange_TimerCB
                  0x005be4                  _PRL_CommitPendingTxOnCAISR
                  0x0060a6                  _PRL_ConfigureBISTCarrierMode
                  0x00518a                  _PRL_EnableRx
                  0x004c66                  _PRL_FormNonSOPTypeMsgHeader
                  0x006002                  _PRL_FormRequestChunkMsgHeader
                  0x004c38                  _PRL_FormSOPTypeMsgHeader
                  0x00552a                  _PRL_HRorCRCompltIndicationFromPE
                  0x0051d2                  _PRL_HandleISR
                  0x005384                  _PRL_IncrementMsgID
                  0x004932                  _PRL_Init
                  0x005b20                  _PRL_IsAnyMsgPendinginPRL
                  0x00608a                  _PRL_KillCAorChunkSMTimer
                  0x005568                  _PRL_PHYLayerReset
                  0x005584                  _PRL_ProcessRecvdMsg
                  0x005408                  _PRL_ProcessRxFIFOISR
                  0x006112                  _PRL_ProtocolReset
                  0x0054e8                  _PRL_ProtocolResetAllSOPs
                  0x005496                  _PRL_ProtocolspecificSOPReset
                  0x0046fa                  _PRL_RCHChunkSMStateChange_RCHCB
                  0x005a10                  _PRL_ReceiveMsg
                  0x005c94                  _PRL_ResetChunkSM
                  0x005d44                  _PRL_RunChunkStateMachine
                  0x0050ea                  _PRL_SendCableorHardReset
                  0x005b42                  _PRL_SetCollisionAvoidance
                  0x005bb2                  _PRL_SinkIntAMS
                  0x0047e2                  _PRL_TCHChunkSMStateChange_TCHCB
                  0x004d8c                  _PRL_TransmitMsg
                  0x005cce                  _PRL_TxOriginalCBfromCH
                  0x005444                  _PRL_TxRxMsgID_Reset
                  0x004be2                  _PRL_UpdateSpecAndDeviceRoles
                  0x005c5c                  _PRL_UpdateTotalChunkNumVar
                  0x00f8fc                  _SPI2_Exchange
                  0x00f97a                  _SPI2_Exchange8bit
                  0x00f98a                  _SPI2_Exchange8bitBuffer
                  0x00f90e                  _SPI2_ExchangeBuffer
                  0x00f8b0                  _SPI2_Initialize
                  0x00f9f6                  _SPI2_StatusGet
                  0x00c882                  _SPI_Read
                  0x00c87c                  _SPI_Write
                  0x007f04                  _SetFaultCondition
                  0x00eb76                  _TaskExecutionFaultObject_Initialize
                  0x00ec18                  _TaskMgrPeriodViolationFaultObject_Initialize
                  0x00ebbe                  _TaskTimeQuotaViolationFaultObject_Initialize
                  0x003346                  _TypeC_CCVBUSIntrHandler
                  0x0037ca                  _TypeC_CheckRpValCollAvoidance
                  0x002878                  _TypeC_ConfigCCComp
                  0x003824                  _TypeC_ConfigureVBUSThr
                  0x002a4c                  _TypeC_EnabDisVCONN
                  0x002572                  _TypeC_HandleISR
                  0x003a0a                  _TypeC_InitPort
                  0x003808                  _TypeC_KillTypeCTimer
                  0x0031f8                  _TypeC_Reset_VCONNDIS_Settings
                  0x003f02                  _TypeC_RunStateMachine
                  0x002504                  _TypeC_SetCCDebounceVariable
                  0x002934                  _TypeC_SetCCSampleEnable
                  0x002a32                  _TypeC_SetDataRole
                  0x002fc4                  _TypeC_SetDefaultRpValue
                  0x0029b2                  _TypeC_SetPowerRole
                  0x0035ac                  _TypeC_SetRpCollAvoidance
                  0x0028d0                  _TypeC_SetVBUSCompONOFF
                  0x002d68                  _TypeC_SrcIntrHandler
                  0x0046c2                  _TypeC_StateChange_TimerCB
                  0x0024f4                  _TypeC_SubStateChange_TimerCB
                  0x00395e                  _TypeC_VBUSDrive
                  0x003440                  _TypeC_VCONNDis_On_IntrHandler
                  0x003978                  _TypeC_VCONNONErrorTimerCB
                  0x002c64                  _TypeC_VCONN_ON_IntrHandler
                  0x010c68                  _UPDIntr_AlertHandler
                  0x008f9a                  _UPD_ConfigurePIODebounceCount
                  0x008ad4                  _UPD_GPIOEnableDisable
                  0x009118                  _UPD_GPIOInit
                  0x008cbc                  _UPD_GPIOSetBufferType
                  0x008db0                  _UPD_GPIOSetClearOutput
                  0x008fec                  _UPD_GPIOSetDebounce
                  0x008bc8                  _UPD_GPIOSetDirection
                  0x008ea4                  _UPD_GPIOSetIntrAlert
                  0x009156                  _UPD_PIOHandleISR
                  0x008950                  _UPD_RegByteClearBit
                  0x0088d2                  _UPD_RegByteSetBit
                  0x00884e                  _UPD_RegReadByte
                  0x008890                  _UPD_RegReadWord
                  0x0087d2                  _UPD_RegWriteByte
                  0x008810                  _UPD_RegWriteWord
                  0x008a14                  _UPD_RegisterRead
                  0x008a96                  _UPD_RegisterReadISR
                  0x0089d0                  _UPD_RegisterWrite
                  0x008a5c                  _UPD_RegisterWriteISR
                  0x00080a                  __ADCAN16Interrupt
                  0x000844                  __ADCAN18Interrupt
                  0x000872                  __ADCAN4Interrupt
                  0x0008b0                  __ADCAN9Interrupt
                  0x0004bc                  __AddressError
                  0x0007dc                  __CCT7Interrupt
                  0x0008de                  __DefaultInterrupt
                  0x015f00                  __FSEC.sec
                  0x00044a                  __HardTrapError
                  0x0010dc                  __Litob
                  0x000508                  __MathError
                  0x000496                  __OscillatorFail
                  0x000d3c                  __Puttxt
                  0x0003fe                  __ReservedTrap5
                  0x000424                  __ReservedTrap7
                  0x000470                  __SoftTrapError
                  0x0004e2                  __StackError
                  0x000772                  __U3EInterrupt
                  0x00052e                  __U3RXInterrupt
                  0x000eb4                  __Vacopy
                  0x000bc0                  ___Printf_cdnopuxX
                  0x000eb8                  ___Putfld_cdnopuxX
                  0x001488                  ___divdi3
                  0x0008e4                  ___divsf3
                  0x000968                  ___divsi3
                  0x000986                  ___eqsf2
                  0x00098a                  ___fixunssfsi
                  0x000b28                  ___floatundisf
                  0x0009c0                  ___floatunsisf
                  0x000986                  ___lesf2
                  0x000986                  ___ltsf2
                  0x0014e8                  ___moddi3
                  0x000a6a                  ___mulsf3
                  0x001472                  ___udivdi3
                  0x00138c                  ___udivmoddi3
                  0x000ad2                  ___udivsi3
                  0x001480                  ___umoddi3
                  0x00133a                  ___umodsi3
                  0x000248                  __data_init
                  0x000248                  __data_init_extended
                  0x000a4a                  __fPropagateNaN
                  0x000a5c                  __fbopExit
                  0x000a64                  __fbopReturnNaN
                  0x000af2                  __fcompare
                  0x0009c4                  __fpack
                  0x000a10                  __funpack
                  0x000a3a                  __funpack2
                  0x00023c                  __psv_init
                  0x000200                  __resetPRI
                  0x000b94                  __sprintf_cdnopuxX
                  0x0019a4                  _au16BBTxFallDACValues
                  0x00198c                  _au16BBTxRiseDACValues
                  0x00222c                  _au16CCThrVal
                  0x0019bc                  _au8BMCEncoderRegValues
                  0x00a75c                  _c4SWBB_TimingUpdate
                  0x00ab6a                  _c4SWBB_shut_down
                  0x00bbe8                  _c4swbb_adc_enable
                  0x00baba                  _c4swbb_adc_inputs_initialize
                  0x00ba50                  _c4swbb_adc_module_initialize
                  0x00b9b8                  _c4swbb_pwm_disable
                  0x00b95a                  _c4swbb_pwm_enable
                  0x00b786                  _c4swbb_pwm_generators_initialize
                  0x00b9f0                  _c4swbb_pwm_hold
                  0x00b6f8                  _c4swbb_pwm_module_initialize
                  0x00ba20                  _c4swbb_pwm_release
                  0x011414                  _c4swbb_pwm_update
                  0x010008                  _cha_iloop_Init
                  0x010822                  _cha_iloop_Precharge
                  0x01080a                  _cha_iloop_Reset
                  0x01078c                  _cha_iloop_Update
                  0x0100f0                  _cha_vloop_Init
                  0x0108d8                  _cha_vloop_Precharge
                  0x0108c0                  _cha_vloop_Reset
                  0x010842                  _cha_vloop_Update
                  0x0101d8                  _chb_iloop_Init
                  0x01098e                  _chb_iloop_Precharge
                  0x010976                  _chb_iloop_Reset
                  0x0108f8                  _chb_iloop_Update
                  0x0102c0                  _chb_vloop_Init
                  0x010a44                  _chb_vloop_Precharge
                  0x010a2c                  _chb_vloop_Reset
                  0x0109ae                  _chb_vloop_Update
                  0x00ccf2                  _check_power_budget
                  0x00c516                  _configure_upd350_gpio
                  0x00fde6                  _debug_uart_tx
                  0x00fe0e                  _debug_uart_tx_flush
                  0x00a784                  _exec_4SWBB_PowerController
                  0x008288                  _exec_FaultCheckAll
                  0x0091b8                  _exec_PowerControl
                  0x00c1f4                  _flt_OverCurrentProtection_USBPort_1_Initialize
                  0x00c3b2                  _flt_OverCurrentProtection_USBPort_2_Initialize
                  0x00c2a4                  _flt_OverTempProtection_USBPort_1_Initialize
                  0x00c462                  _flt_OverTempProtection_USBPort_2_Initialize
                  0x00c24e                  _flt_OverTempWarning_USBPort_1_Initialize
                  0x00c40c                  _flt_OverTempWarning_USBPort_2_Initialize
                  0x00c140                  _flt_OverVoltageLockOut_Initialize
                  0x00c19a                  _flt_OverVoltageProtection_USBPort_1_Initialize
                  0x00c358                  _flt_OverVoltageProtection_USBPort_2_Initialize
                  0x00c2fc                  _flt_RegulationError_USBPort_1_Initialize
                  0x00c4ba                  _flt_RegulationError_USBPort_2_Initialize
                  0x00c0e6                  _flt_UnderVoltageLockOut_Initialize
                  0x011c70                  _gsirq_get_current_irq_priority_level
                  0x011e00                  _gsirq_get_current_irq_vector
                  0x010488                  _gsirq_irq_initialize
                  0x01180c                  _gsirq_soft_traps_initialize
                  0x00c8fc                  _hook_debug_i32
                  0x00c8a8                  _hook_debug_print_string
                  0x00c8c8                  _hook_debug_u16
                  0x00c8e2                  _hook_debug_u32
                  0x00c8ac                  _hook_debug_u8
                  0x00c8a6                  _hook_function_get_temperature_in_c
                  0x00c890                  _hook_notify_pd_events_cb
                  0x00c88c                  _hook_pdo_request_post_process_valid
                  0x00c88a                  _hook_policy_engine_pre_process
                  0x00c616                  _hw_portpower_driveVBUS
                  0x00c7ee                  _hw_portpower_enab_dis_VBUSDischarge
                  0x00c576                  _hw_portpower_init
                  0x00c86a                  _hw_spi_cs_high
                  0x00c858                  _hw_spi_cs_low
                  0x00c854                  _hw_spi_init
                  0x00ac2c                  _init_4SWBB_PowerController
                  0x0093c6                  _init_ISR_USBport_1
                  0x009460                  _init_ISR_USBport_2
                  0x0099c2                  _init_PowerControl
                  0x011964                  _init_SoftTraps
                  0x0094da                  _init_USBport_1
                  0x009750                  _init_USBport_2
                  0x0113ae                  _init_taskPDStack
                  0x011df4                  _main
                  0x000bb2                  _memcpy
                  0x00df80                  _os_CheckOperationModeStatus
                  0x007d2e                  _os_FaultObjects_Initialize
                  0x00dea0                  _os_ProcessTaskQueue
                  0x00e102                  _os_TaskManager_Initialize
                  0x00c56e                  _port_led_off
                  0x00c566                  _port_led_on
                  0x00cf56                  _power_management_state_machine
                  0x00aba4                  _reset_4SWBB_PowerController
                  0x009344                  _reset_PowerControl
                  0x009382                  _reset_USBPort_1
                  0x0093a4                  _reset_USBPort_2
                  0x00ce84                  _reset_port_pdos
                  0x00f9fa                  _smpsCRC_GetStandard_Data8CRC16
                  0x00ecae                  _smpsCRC_Initialize
                  0x00a622                  _smpsDebugUART_Execute
                  0x00a1a2                  _smpsDebugUART_Initialize
                  0x00a27e                  _smpsDebugUART_InitializeFrame
                  0x00a382                  _smpsDebugUART_ProcessDefaultCID
                  0x011b62                  _smpsDebugUART_ProcessUserCID
                  0x00a2a6                  _smpsDebugUART_SendFrame
                  0x00d836                  _smpsGPIO_ClearConfig
                  0x0113c0                  _smpsGPIO_Initialize
                  0x011316                  _smpsGPIO_SetIOConfig
                  0x00d498                  _smpsGPIO_WriteConfig
                  0x00f5f4                  _smpsHSADC_ADComp_Initialize
                  0x010cfc                  _smpsHSADC_ADFilter_Initialize
                  0x010fac                  _smpsHSADC_ADInput_Initialize
                  0x00ff1c                  _smpsHSADC_ADInput_SetInterrupt
                  0x00fb2e                  _smpsHSADC_ADInput_SetMode
                  0x010ea4                  _smpsHSADC_ADInput_SetTriggerMode
                  0x011922                  _smpsHSADC_ADInput_SetTriggerSource
                  0x00fe2e                  _smpsHSADC_Core_PowerUp
                  0x01118c                  _smpsHSADC_Cores_CheckReady
                  0x011de4                  _smpsHSADC_Module_Disable
                  0x011466                  _smpsHSADC_Module_Enable
                  0x00ee72                  _smpsHSADC_Module_Initialize
                  0x011c96                  _smpsHSADC_Module_PowerDown
                  0x011cde                  _smpsHSADC_Module_PowerUp
                  0x011856                  _smpsHSADC_Module_Reset
                  0x010bbe                  _smpsHSPWM_ChannelTiming_Initialize
                  0x00bc08                  _smpsHSPWM_Channel_Initialize
                  0x0118de                  _smpsHSPWM_Disable
                  0x010e18                  _smpsHSPWM_Enable
                  0x00e8b6                  _smpsHSPWM_IndependentPWM_Initialize
                  0x00acb0                  _smpsHSPWM_Module_Initialize
                  0x01155a                  _smpsHSPWM_OVR_Hold
                  0x0115a8                  _smpsHSPWM_OVR_Release
                  0x0115f6                  _smpsHSPWM_OVR_ReleaseHighSide
                  0x011644                  _smpsHSPWM_OVR_ReleaseLowSide
                  0x011dae                  _smpsHSPWM_PowerDown
                  0x011d9a                  _smpsHSPWM_PowerUp
                  0x0116de                  _smpsHSPWM_ResetGPIO_HighSide
                  0x011776                  _smpsHSPWM_ResetGPIO_LowSide
                  0x01125a                  _smpsHSPWM_SetDutyCycle
                  0x011692                  _smpsHSPWM_SetGPIO_HighSide
                  0x01172a                  _smpsHSPWM_SetGPIO_LowSide
                  0x01150a                  _smpsOSC_AUXCLK_DefaultInitialize
                  0x010f28                  _smpsOSC_AUXCLK_Initialize
                  0x0106d4                  _smpsOSC_FRC_DefaultInitialize
                  0x0119a4                  _smpsOSC_FRC_Initialize
                  0x00db6e                  _smpsOSC_GetFrequencies
                  0x00f018                  _smpsOSC_Initialize
                  0x0114b8                  _smpsPMD_SetPowerStateAll
                  0x011d56                  _smpsPPS_LockIO
                  0x011dc2                  _smpsPPS_RemapInput
                  0x0119e4                  _smpsPPS_RemapOutput
                  0x011d3c                  _smpsPPS_UnlockIO
                  0x011d84                  _smpsPPS_UnmapInput
                  0x011d6e                  _smpsPPS_UnmapOutput
                  0x011cba                  _smpsTimer_Disable
                  0x011c48                  _smpsTimer_Dispose
                  0x0117c2                  _smpsTimer_Enable
                  0x010b14                  _smpsTimer_GetTimerConfig
                  0x00fc48                  _smpsTimer_Initialize16b
                  0x011c1e                  _smpsTimer_PowerOff
                  0x011bf2                  _smpsTimer_PowerOn
                  0x011d00                  _smpsTimer_Reset
                  0x0111f8                  _smpsUART_Close
                  0x011a5c                  _smpsUART_Disable
                  0x010d8c                  _smpsUART_Dispose
                  0x01189a                  _smpsUART_Enable
                  0x00f754                  _smpsUART_GetBaudrate
                  0x0103a8                  _smpsUART_GetBaudrateRegValue
                  0x011bc2                  _smpsUART_GetHandle
                  0x0110a4                  _smpsUART_GetStandardCRC16
                  0x011a20                  _smpsUART_GetStatus
                  0x00d0ca                  _smpsUART_Initialize
                  0x00c916                  _smpsUART_OpenPort
                  0x01111c                  _smpsUART_PowerOff
                  0x011028                  _smpsUART_PowerOn
                  0x00e668                  _smpsUART_ReadFIFO
                  0x010552                  _smpsUART_SetBaudrate
                  0x00f492                  _smpsUART_WriteFIFO
                  0x000d24                  _strchr
                  0x00f1b0                  _task_DebugUART_Execute
                  0x00f2de                  _task_DebugUART_Initialize
                  0x011e0a                  _task_Idle
                  0x01136c                  _task_PDStack
                  0x011ddc                  _task_queue_fault_init
                  0x011dd4                  _task_queue_idle_init
                  0x011dd8                  _task_queue_run_init
                  0x011de0                  _task_queue_standby_init
                  0x00c820                  _upd_irq_asserted
                  0x00c80c                  _updalert_init
                  0x00ce30                  _update_all_port_pdos
                  0x00cf02                  _update_single_port_pdos
                  0x00c83c                  _updreset_init
                  0x00c84a                  _updreset_thru_gpio
                  0x000b86                  sprintf_cdnopuxX.CHeo:_prout

Memory Configuration

Name             Origin             Length             Attributes
data             0x001000           0x004000           a !xr
FBOOT            0x801800           0x000002  
reset            0x000000           0x000004  
ivt              0x000004           0x0001fc  
program          0x000200           0x015d00           xr
FSEC             0x015f00           0x000002  
FBSLIM           0x015f10           0x000002  
FSIGN            0x015f14           0x000002  
FOSCSEL          0x015f18           0x000002  
FOSC             0x015f1c           0x000002  
FWDT             0x015f20           0x000002  
FPOR             0x015f24           0x000002  
FICD             0x015f28           0x000002  
FDMTIVTL         0x015f2c           0x000002  
FDMTIVTH         0x015f30           0x000002  
FDMTCNTL         0x015f34           0x000002  
FDMTCNTH         0x015f38           0x000002  
FDMT             0x015f3c           0x000002  
FDEVOPT          0x015f40           0x000002  
FALTREG          0x015f44           0x000002  
FBTSEQ           0x015ffc           0x000002  
*default*        0x000000           0xffffffff  

Linker script and memory map


reserve_data_0x1000
                    0x1000         0x1c
                    0x101c                  . = 0x1c
 *fill*             0x1000         0x1c00

reserve_data_0x101c
                    0x101c          0x2
                    0x101e                  . = 0x2
 *fill*             0x101c          0x200

reserve_data_0x101e
                    0x101e          0x2
                    0x1020                  . = 0x2
 *fill*             0x101e          0x200

reserve_data_0x1020
                    0x1020          0x2
                    0x1022                  . = 0x2
 *fill*             0x1020          0x200

reserve_data_0x1022
                    0x1022          0x2
                    0x1024                  . = 0x2
 *fill*             0x1022          0x200

reserve_data_0x1024
                    0x1024          0x4
                    0x1028                  . = 0x4
 *fill*             0x1024          0x400

reserve_data_0x1028
                    0x1028         0x28
                    0x1050                  . = 0x28
 *fill*             0x1028         0x2800
LOAD build/00173_USB_PD_BOB_R21/debug/_ext/949971983/fdrv_FaultHandler.o
LOAD build/00173_USB_PD_BOB_R21/debug/_ext/949971983/fdrv_TrapHandler.o
LOAD build/00173_USB_PD_BOB_R21/debug/_ext/949971983/fdrv_FaultObjects.o
LOAD build/00173_USB_PD_BOB_R21/debug/_ext/949971983/os_Initialize.o
LOAD build/00173_USB_PD_BOB_R21/debug/_ext/949971983/os_Scheduler.o
LOAD build/00173_USB_PD_BOB_R21/debug/_ext/949971983/os_TaskManager.o
LOAD build/00173_USB_PD_BOB_R21/debug/_ext/687227054/UserStartupCode.o
LOAD build/00173_USB_PD_BOB_R21/debug/_ext/687227054/UserAppManager.o
LOAD build/00173_USB_PD_BOB_R21/debug/_ext/687227054/UserFaultObjects.o
LOAD build/00173_USB_PD_BOB_R21/debug/_ext/687227054/UserTasks.o
LOAD build/00173_USB_PD_BOB_R21/debug/_ext/1515990320/smpsDebugUART.o
LOAD build/00173_USB_PD_BOB_R21/debug/_ext/1515990320/smpsDebugUART_UserCID.o
LOAD build/00173_USB_PD_BOB_R21/debug/_ext/92048113/debug_uart.o
LOAD build/00173_USB_PD_BOB_R21/debug/_ext/2109991248/upd_timer.o
LOAD build/00173_USB_PD_BOB_R21/debug/_ext/553671219/c4swbb_control.o
LOAD build/00173_USB_PD_BOB_R21/debug/_ext/553671219/c4swbb_pconfig.o
LOAD build/00173_USB_PD_BOB_R21/debug/_ext/553671219/cha_iloop.o
LOAD build/00173_USB_PD_BOB_R21/debug/_ext/553671219/cha_vloop.o
LOAD build/00173_USB_PD_BOB_R21/debug/_ext/553671219/chb_iloop.o
LOAD build/00173_USB_PD_BOB_R21/debug/_ext/553671219/chb_vloop.o
LOAD build/00173_USB_PD_BOB_R21/debug/_ext/553671219/c4swbb_write_pwm.o
LOAD build/00173_USB_PD_BOB_R21/debug/_ext/553671219/cha_iloop_asm.o
LOAD build/00173_USB_PD_BOB_R21/debug/_ext/553671219/cha_vloop_asm.o
LOAD build/00173_USB_PD_BOB_R21/debug/_ext/553671219/chb_iloop_asm.o
LOAD build/00173_USB_PD_BOB_R21/debug/_ext/553671219/chb_vloop_asm.o
LOAD build/00173_USB_PD_BOB_R21/debug/_ext/1494078692/spi2.o
LOAD build/00173_USB_PD_BOB_R21/debug/_ext/1666088709/cfg_globals.o
LOAD build/00173_USB_PD_BOB_R21/debug/_ext/1666088709/debug.o
LOAD build/00173_USB_PD_BOB_R21/debug/_ext/1666088709/generic_timer.o
LOAD build/00173_USB_PD_BOB_R21/debug/_ext/1666088709/int_globals.o
LOAD build/00173_USB_PD_BOB_R21/debug/_ext/1666088709/pd_main.o
LOAD build/00173_USB_PD_BOB_R21/debug/_ext/1666088709/policy_engine.o
LOAD build/00173_USB_PD_BOB_R21/debug/_ext/1666088709/policy_engine_fwup.o
LOAD build/00173_USB_PD_BOB_R21/debug/_ext/1666088709/policy_engine_snk.o
LOAD build/00173_USB_PD_BOB_R21/debug/_ext/1666088709/policy_engine_src.o
LOAD build/00173_USB_PD_BOB_R21/debug/_ext/1666088709/policy_manager.o
LOAD build/00173_USB_PD_BOB_R21/debug/_ext/1666088709/protocol_layer.o
LOAD build/00173_USB_PD_BOB_R21/debug/_ext/1666088709/typeC_control.o
LOAD build/00173_USB_PD_BOB_R21/debug/_ext/1666088709/upd_hw.o
LOAD build/00173_USB_PD_BOB_R21/debug/_ext/1666088709/upd_interrupts.o
LOAD build/00173_USB_PD_BOB_R21/debug/_ext/481295256/hook_functions.o
LOAD build/00173_USB_PD_BOB_R21/debug/_ext/481295256/thermal_power_management.o
LOAD build/00173_USB_PD_BOB_R21/debug/_ext/1838571682/task_Idle.o
LOAD build/00173_USB_PD_BOB_R21/debug/_ext/1838571682/task_PDStack.o
LOAD build/00173_USB_PD_BOB_R21/debug/_ext/1838571682/task_PowerControl.o
LOAD build/00173_USB_PD_BOB_R21/debug/_ext/1838571682/task_DebugUART.o
LOAD build/00173_USB_PD_BOB_R21/debug/_ext/659850787/apl.o
LOAD build/00173_USB_PD_BOB_R21/debug/_ext/659857049/hal.o
LOAD build/00173_USB_PD_BOB_R21/debug/_ext/391766742/config_bits_P33CH.o
LOAD build/00173_USB_PD_BOB_R21/debug/_ext/391766742/config_bits_P33CK.o
LOAD build/00173_USB_PD_BOB_R21/debug/_ext/1171588148/init_dsp.o
LOAD build/00173_USB_PD_BOB_R21/debug/_ext/1171588148/init_fosc.o
LOAD build/00173_USB_PD_BOB_R21/debug/_ext/1171588148/init_gpio.o
LOAD build/00173_USB_PD_BOB_R21/debug/_ext/1171588148/init_irq.o
LOAD build/00173_USB_PD_BOB_R21/debug/_ext/1171588148/init_timer.o
LOAD build/00173_USB_PD_BOB_R21/debug/_ext/1019117317/mcal.o
LOAD build/00173_USB_PD_BOB_R21/debug/_ext/659867775/sfl.o
LOAD build/00173_USB_PD_BOB_R21/debug/_ext/1360937237/main.o
LOAD ..\..\plib\p33SMPS_mcal.X\dist\__P33SMPS_CK__\debug\p33SMPS_mcal.X.a
                    0x0001                  __MPLAB_BUILD = 0x1
                    0x0001                  __MPLAB_DEBUG = 0x1
                    0x0001                  __DEBUG = 0x1
                    0x0001                  __MPLAB_DEBUGGER_ICD4 = 0x1
LOAD p33CK128MP505
LOAD c:/program files (x86)/microchip/xc16/v1.41/bin/bin/../../lib\libfx-elf.a
                    0x801034                  _iwri1 = 0x801034
                    0x801038                  _iwri2 = 0x801038
                    0x801800                  __FBOOT = 0x801800
                    0x15f00                  __FSEC = 0x15f00
                    0x15f10                  __FBSLIM = 0x15f10
                    0x15f14                  __FSIGN = 0x15f14
                    0x15f18                  __FOSCSEL = 0x15f18
                    0x15f1c                  __FOSC = 0x15f1c
                    0x15f20                  __FWDT = 0x15f20
                    0x15f24                  __FPOR = 0x15f24
                    0x15f28                  __FICD = 0x15f28
                    0x15f2c                  __FDMTIVTL = 0x15f2c
                    0x15f30                  __FDMTIVTH = 0x15f30
                    0x15f34                  __FDMTCNTL = 0x15f34
                    0x15f38                  __FDMTCNTH = 0x15f38
                    0x15f3c                  __FDMT = 0x15f3c
                    0x15f40                  __FDEVOPT = 0x15f40
                    0x15f44                  __FALTREG = 0x15f44
                    0x15ffc                  __FBTSEQ = 0x15ffc
                    0x0200                  __CODE_BASE = 0x200
                    0x15d00                  __CODE_LENGTH = 0x15d00
                    0x0004                  __IVT_BASE = 0x4
                    0x1000                  __DATA_BASE = 0x1000
                    0x4000                  __DATA_LENGTH = 0x4000
                    0x3000                  __YDATA_BASE = 0x3000

.reset            0x000000          0x4
                  0x000000          0x2 SHORT 0x200 ABSOLUTE (__reset)
                  0x000001          0x2 SHORT 0x4
                  0x000002          0x2 SHORT 0x0 ((ABSOLUTE (__reset) >> 0x10) & 0x7f)
                  0x000003          0x2 SHORT 0x0

.text             0x000200       0x1344
 *(.init)
 .init            0x000200         0x48 c:/program files (x86)/microchip/xc16/v1.41/bin/bin/../../lib\liblega-pic30-elf.a(crt0_extendedch.o)
                  0x000200                  __resetPRI
                  0x000200                  __reset
                  0x00023c                  __psv_init
 .init            0x000248         0xb2 c:/program files (x86)/microchip/xc16/v1.41/bin/bin/../../lib\liblega-pic30-elf.a(data_init_extendedch.o)
                  0x000248                  __data_init
                  0x000248                  __data_init_extended
 *(.user_init)
 *(.handle)
 .handle          0x0002fa        0x104 jump_table
 *(.isr*)
 .isr.text        0x0003fe        0x130 build/00173_USB_PD_BOB_R21/debug/_ext/949971983/fdrv_TrapHandler.o
                  0x0003fe                  __ReservedTrap5
                  0x000424                  __ReservedTrap7
                  0x00044a                  __HardTrapError
                  0x000470                  __SoftTrapError
                  0x000496                  __OscillatorFail
                  0x0004bc                  __AddressError
                  0x0004e2                  __StackError
                  0x000508                  __MathError
 .isr.text        0x00052e        0x2ae build/00173_USB_PD_BOB_R21/debug/_ext/1515990320/smpsDebugUART.o
                  0x00052e                  __U3RXInterrupt
                  0x000772                  __U3EInterrupt
 .isr.text        0x0007dc         0x2e build/00173_USB_PD_BOB_R21/debug/_ext/2109991248/upd_timer.o
                  0x0007dc                  __CCT7Interrupt
 .isr.text        0x00080a         0xd4 build/00173_USB_PD_BOB_R21/debug/_ext/1838571682/task_PowerControl.o
                  0x00080a                  __ADCAN16Interrupt
                  0x000844                  __ADCAN18Interrupt
                  0x000872                  __ADCAN4Interrupt
                  0x0008b0                  __ADCAN9Interrupt
 .isr             0x0008de          0x4 default_isr
                  0x0008de                  __DefaultInterrupt
 *(.libc)
 *(.libm)
 *(.libdsp)
 *(.lib*)
 .libpic30_crt_start_mode
                  0x0008e2          0x2 c:/program files (x86)/microchip/xc16/v1.41/bin/bin/../../lib\liblega-pic30-elf.a(crt_start_mode_normalch.Leo)
                  0x0008e2                  __crt_start_mode
                  0x0008e2                  __crt_start_mode_normal
 .libm.divfs3     0x0008e4         0x84 c:/program files (x86)/microchip/xc16/v1.41/bin/bin/../../lib\libm-elf.a(divsf3.cheo)
                  0x0008e4                  ___divsf3
 .libm.divsi3     0x000968         0x1e c:/program files (x86)/microchip/xc16/v1.41/bin/bin/../../lib\libm-elf.a(divsi3.cheo)
                  0x000968                  ___divsi3
 .libm.eqsf2      0x000986          0x4 c:/program files (x86)/microchip/xc16/v1.41/bin/bin/../../lib\libm-elf.a(feqltle.cheo)
                  0x000986                  ___eqsf2
                  0x000986                  ___ltsf2
                  0x000986                  ___lesf2
 .libm.fixunssfsi
                  0x00098a         0x36 c:/program files (x86)/microchip/xc16/v1.41/bin/bin/../../lib\libm-elf.a(fixunssfsi.cheo)
                  0x00098a                  ___fixunssfsi
 .libm.floatunsisf
                  0x0009c0          0x4 c:/program files (x86)/microchip/xc16/v1.41/bin/bin/../../lib\libm-elf.a(floatunsisf.cheo)
                  0x0009c0                  ___floatunsisf
 .libm.fpack      0x0009c4         0x4c c:/program files (x86)/microchip/xc16/v1.41/bin/bin/../../lib\libm-elf.a(fpack.cheo)
                  0x0009c4                  __fpack
 .libm.funpack    0x000a10         0x2a c:/program files (x86)/microchip/xc16/v1.41/bin/bin/../../lib\libm-elf.a(funpack.cheo)
                  0x000a10                  __funpack
 .libm.funpack2
                  0x000a3a         0x10 c:/program files (x86)/microchip/xc16/v1.41/bin/bin/../../lib\libm-elf.a(funpack2.cheo)
                  0x000a3a                  __funpack2
 .libm.fPropagateNaN
                  0x000a4a         0x12 c:/program files (x86)/microchip/xc16/v1.41/bin/bin/../../lib\libm-elf.a(futil.cheo)
                  0x000a4a                  __fPropagateNaN
 .libm.fbobExit
                  0x000a5c          0x8 c:/program files (x86)/microchip/xc16/v1.41/bin/bin/../../lib\libm-elf.a(futil.cheo)
                  0x000a5c                  __fbopExit
 .libm.fbopReturnNaN
                  0x000a64          0x6 c:/program files (x86)/microchip/xc16/v1.41/bin/bin/../../lib\libm-elf.a(futil.cheo)
                  0x000a64                  __fbopReturnNaN
 .libm.mulsf3     0x000a6a         0x68 c:/program files (x86)/microchip/xc16/v1.41/bin/bin/../../lib\libm-elf.a(mulsf3.cheo)
                  0x000a6a                  ___mulsf3
 .libm.udivsi3    0x000ad2         0x20 c:/program files (x86)/microchip/xc16/v1.41/bin/bin/../../lib\libm-elf.a(udivsi3.cheo)
                  0x000ad2                  ___udivsi3
 .libm.fcompare
                  0x000af2         0x36 c:/program files (x86)/microchip/xc16/v1.41/bin/bin/../../lib\libm-elf.a(fcompare.cheo)
                  0x000af2                  __fcompare
 .libm.floatundisf
                  0x000b28         0x5e c:/program files (x86)/microchip/xc16/v1.41/bin/bin/../../lib\libm-elf.a(floatundisf.cheo)
                  0x000b28                  ___floatundisf
 .libc.prout      0x000b86          0xe c:/program files (x86)/microchip/xc16/v1.41/bin/bin/../../lib\liblega-c-elf.a(sprintf_cdnopuxX.CHeo)
                  0x000b86                  sprintf_cdnopuxX.CHeo:_prout
 .libc._sprintf_cdnopuxX
                  0x000b94         0x1e c:/program files (x86)/microchip/xc16/v1.41/bin/bin/../../lib\liblega-c-elf.a(sprintf_cdnopuxX.CHeo)
                  0x000b94                  __sprintf_cdnopuxX
 .libc.memcpy     0x000bb2          0xe c:/program files (x86)/microchip/xc16/v1.41/bin/bin/../../lib\liblega-c-elf.a(memcpy.CH_eo)
                  0x000bb2                  _memcpy
 .libc.__Printf_cdnopuxX
                  0x000bc0        0x164 c:/program files (x86)/microchip/xc16/v1.41/bin/bin/../../lib\liblega-c-elf.a(xprintf_cdnopuxX.CHeo)
                  0x000bc0                  ___Printf_cdnopuxX
 .libc.strchr     0x000d24         0x18 c:/program files (x86)/microchip/xc16/v1.41/bin/bin/../../lib\liblega-c-elf.a(strchr.CH_eo)
                  0x000d24                  _strchr
 .libc._Puttxt    0x000d3c        0x178 c:/program files (x86)/microchip/xc16/v1.41/bin/bin/../../lib\liblega-c-elf.a(xputtxt.CH_eo)
                  0x000d3c                  __Puttxt
 .libc._Vacopy    0x000eb4          0x4 c:/program files (x86)/microchip/xc16/v1.41/bin/bin/../../lib\liblega-c-elf.a(xvacopy.CH_eo)
                  0x000eb4                  __Vacopy
 .libc.__Putfld_cdnopuxX
                  0x000eb8        0x224 c:/program files (x86)/microchip/xc16/v1.41/bin/bin/../../lib\liblega-c-elf.a(xputfld_cdnopuxX.CHeo)
                  0x000eb8                  ___Putfld_cdnopuxX
 .libc._Litob     0x0010dc        0x25e c:/program files (x86)/microchip/xc16/v1.41/bin/bin/../../lib\liblega-c-elf.a(xlitob.CH_eo)
                  0x0010dc                  __Litob
 .libm.umodsi3    0x00133a          0x6 c:/program files (x86)/microchip/xc16/v1.41/bin/bin/../../lib\libm-elf.a(umodsi3.cheo)
                  0x00133a                  ___umodsi3
 .libm.__PplusBdi
                  0x001340         0x26 c:/program files (x86)/microchip/xc16/v1.41/bin/bin/../../lib\libm-elf.a(divmoddi3.cheo)
 .libm.__PminusBdi
                  0x001366         0x26 c:/program files (x86)/microchip/xc16/v1.41/bin/bin/../../lib\libm-elf.a(divmoddi3.cheo)
 .libm.__udivmoddi3
                  0x00138c         0xe6 c:/program files (x86)/microchip/xc16/v1.41/bin/bin/../../lib\libm-elf.a(divmoddi3.cheo)
                  0x00138c                  ___udivmoddi3
 .libm.__udivdi3
                  0x001472          0xe c:/program files (x86)/microchip/xc16/v1.41/bin/bin/../../lib\libm-elf.a(divmoddi3.cheo)
                  0x001472                  ___udivdi3
 .libm.__umoddi3
                  0x001480          0x8 c:/program files (x86)/microchip/xc16/v1.41/bin/bin/../../lib\libm-elf.a(divmoddi3.cheo)
                  0x001480                  ___umoddi3
 .libm.__divdi3
                  0x001488         0x60 c:/program files (x86)/microchip/xc16/v1.41/bin/bin/../../lib\libm-elf.a(divmoddi3.cheo)
                  0x001488                  ___divdi3
 .libm.__moddi3
                  0x0014e8         0x5c c:/program files (x86)/microchip/xc16/v1.41/bin/bin/../../lib\libm-elf.a(divmoddi3.cheo)
                  0x0014e8                  ___moddi3

usercode
 *(usercode)

__FBOOT
 *(__FBOOT.sec*)

__FSEC            0x015f00          0x2
 *(__FSEC.sec*)
 __FSEC.sec       0x015f00          0x2 /CW/_FSEC
                  0x015f00                  __FSEC.sec

__FBSLIM
 *(__FBSLIM.sec*)

__FSIGN
 *(__FSIGN.sec*)

__FOSCSEL
 *(__FOSCSEL.sec*)

__FOSC
 *(__FOSC.sec*)

__FWDT
 *(__FWDT.sec*)

__FPOR
 *(__FPOR.sec*)

__FICD
 *(__FICD.sec*)

__FDMTIVTL
 *(__FDMTIVTL.sec*)

__FDMTIVTH
 *(__FDMTIVTH.sec*)

__FDMTCNTL
 *(__FDMTCNTL.sec*)

__FDMTCNTH
 *(__FDMTCNTH.sec*)

__FDMT
 *(__FDMT.sec*)

__FDEVOPT
 *(__FDEVOPT.sec*)

__FALTREG
 *(__FALTREG.sec*)

__FBTSEQ
 *(__FBTSEQ.sec*)

.comment
 *(.comment)

.debug_info       0x000000      0x5b285
 *(.debug_info)
 .debug_info      0x000000       0x1da7 build/00173_USB_PD_BOB_R21/debug/_ext/949971983/fdrv_FaultHandler.o
 .debug_info      0x001da7        0xbf7 build/00173_USB_PD_BOB_R21/debug/_ext/949971983/fdrv_TrapHandler.o
 .debug_info      0x00299e       0x18ba build/00173_USB_PD_BOB_R21/debug/_ext/949971983/fdrv_FaultObjects.o
 .debug_info      0x004258        0x278 build/00173_USB_PD_BOB_R21/debug/_ext/949971983/os_Initialize.o
 .debug_info      0x0044d0       0x1085 build/00173_USB_PD_BOB_R21/debug/_ext/949971983/os_Scheduler.o
 .debug_info      0x005555        0xf03 build/00173_USB_PD_BOB_R21/debug/_ext/949971983/os_TaskManager.o
 .debug_info      0x006458        0x1a3 build/00173_USB_PD_BOB_R21/debug/_ext/687227054/UserStartupCode.o
 .debug_info      0x0065fb        0x3b6 build/00173_USB_PD_BOB_R21/debug/_ext/687227054/UserAppManager.o
 .debug_info      0x0069b1       0x1ee2 build/00173_USB_PD_BOB_R21/debug/_ext/687227054/UserFaultObjects.o
 .debug_info      0x008893        0x57d build/00173_USB_PD_BOB_R21/debug/_ext/687227054/UserTasks.o
 .debug_info      0x008e10       0x3de2 build/00173_USB_PD_BOB_R21/debug/_ext/1515990320/smpsDebugUART.o
 .debug_info      0x00cbf2        0x4f4 build/00173_USB_PD_BOB_R21/debug/_ext/1515990320/smpsDebugUART_UserCID.o
 .debug_info      0x00d0e6        0xad9 build/00173_USB_PD_BOB_R21/debug/_ext/92048113/debug_uart.o
 .debug_info      0x00dbbf        0x7d0 build/00173_USB_PD_BOB_R21/debug/_ext/2109991248/upd_timer.o
 .debug_info      0x00e38f       0x1aad build/00173_USB_PD_BOB_R21/debug/_ext/553671219/c4swbb_control.o
 .debug_info      0x00fe3c       0xcdd2 build/00173_USB_PD_BOB_R21/debug/_ext/553671219/c4swbb_pconfig.o
 .debug_info      0x01cc0e        0x993 build/00173_USB_PD_BOB_R21/debug/_ext/553671219/cha_iloop.o
 .debug_info      0x01d5a1        0x993 build/00173_USB_PD_BOB_R21/debug/_ext/553671219/cha_vloop.o
 .debug_info      0x01df34        0x993 build/00173_USB_PD_BOB_R21/debug/_ext/553671219/chb_iloop.o
 .debug_info      0x01e8c7        0x993 build/00173_USB_PD_BOB_R21/debug/_ext/553671219/chb_vloop.o
 .debug_info      0x01f25a         0xbe build/00173_USB_PD_BOB_R21/debug/_ext/553671219/c4swbb_write_pwm.o
 .debug_info      0x01f318         0xbb build/00173_USB_PD_BOB_R21/debug/_ext/553671219/cha_iloop_asm.o
 .debug_info      0x01f3d3         0xbb build/00173_USB_PD_BOB_R21/debug/_ext/553671219/cha_vloop_asm.o
 .debug_info      0x01f48e         0xbb build/00173_USB_PD_BOB_R21/debug/_ext/553671219/chb_iloop_asm.o
 .debug_info      0x01f549         0xbb build/00173_USB_PD_BOB_R21/debug/_ext/553671219/chb_vloop_asm.o
 .debug_info      0x01f604        0xef8 build/00173_USB_PD_BOB_R21/debug/_ext/1494078692/spi2.o
 .debug_info      0x0204fc        0x3ef build/00173_USB_PD_BOB_R21/debug/_ext/1666088709/cfg_globals.o
 .debug_info      0x0208eb        0x31a build/00173_USB_PD_BOB_R21/debug/_ext/1666088709/debug.o
 .debug_info      0x020c05       0x1b26 build/00173_USB_PD_BOB_R21/debug/_ext/1666088709/generic_timer.o
 .debug_info      0x02272b       0x1cf5 build/00173_USB_PD_BOB_R21/debug/_ext/1666088709/int_globals.o
 .debug_info      0x024420        0x416 build/00173_USB_PD_BOB_R21/debug/_ext/1666088709/pd_main.o
 .debug_info      0x024836       0x2729 build/00173_USB_PD_BOB_R21/debug/_ext/1666088709/policy_engine.o
 .debug_info      0x026f5f        0x166 build/00173_USB_PD_BOB_R21/debug/_ext/1666088709/policy_engine_fwup.o
 .debug_info      0x0270c5        0x165 build/00173_USB_PD_BOB_R21/debug/_ext/1666088709/policy_engine_snk.o
 .debug_info      0x02722a       0x1ab0 build/00173_USB_PD_BOB_R21/debug/_ext/1666088709/policy_engine_src.o
 .debug_info      0x028cda       0x217d build/00173_USB_PD_BOB_R21/debug/_ext/1666088709/policy_manager.o
 .debug_info      0x02ae57       0x1ced build/00173_USB_PD_BOB_R21/debug/_ext/1666088709/protocol_layer.o
 .debug_info      0x02cb44       0x2c09 build/00173_USB_PD_BOB_R21/debug/_ext/1666088709/typeC_control.o
 .debug_info      0x02f74d       0x1213 build/00173_USB_PD_BOB_R21/debug/_ext/1666088709/upd_hw.o
 .debug_info      0x030960        0x211 build/00173_USB_PD_BOB_R21/debug/_ext/1666088709/upd_interrupts.o
 .debug_info      0x030b71       0x26c7 build/00173_USB_PD_BOB_R21/debug/_ext/481295256/hook_functions.o
 .debug_info      0x033238        0x79e build/00173_USB_PD_BOB_R21/debug/_ext/481295256/thermal_power_management.o
 .debug_info      0x0339d6        0x167 build/00173_USB_PD_BOB_R21/debug/_ext/1838571682/task_Idle.o
 .debug_info      0x033b3d        0x615 build/00173_USB_PD_BOB_R21/debug/_ext/1838571682/task_PDStack.o
 .debug_info      0x034152       0x3b94 build/00173_USB_PD_BOB_R21/debug/_ext/1838571682/task_PowerControl.o
 .debug_info      0x037ce6       0x1e15 build/00173_USB_PD_BOB_R21/debug/_ext/1838571682/task_DebugUART.o
 .debug_info      0x039afb        0x151 build/00173_USB_PD_BOB_R21/debug/_ext/659850787/apl.o
 .debug_info      0x039c4c        0x151 build/00173_USB_PD_BOB_R21/debug/_ext/659857049/hal.o
 .debug_info      0x039d9d        0x167 build/00173_USB_PD_BOB_R21/debug/_ext/391766742/config_bits_P33CK.o
 .debug_info      0x039f04        0x4cb build/00173_USB_PD_BOB_R21/debug/_ext/1171588148/init_dsp.o
 .debug_info      0x03a3cf        0x354 build/00173_USB_PD_BOB_R21/debug/_ext/1171588148/init_fosc.o
 .debug_info      0x03a723        0x19f build/00173_USB_PD_BOB_R21/debug/_ext/1171588148/init_gpio.o
 .debug_info      0x03a8c2       0x261a build/00173_USB_PD_BOB_R21/debug/_ext/1171588148/init_irq.o
 .debug_info      0x03cedc        0x73a build/00173_USB_PD_BOB_R21/debug/_ext/1171588148/init_timer.o
 .debug_info      0x03d616        0x153 build/00173_USB_PD_BOB_R21/debug/_ext/1019117317/mcal.o
 .debug_info      0x03d769        0x129 build/00173_USB_PD_BOB_R21/debug/_ext/659867775/sfl.o
 .debug_info      0x03d892        0x166 build/00173_USB_PD_BOB_R21/debug/_ext/1360937237/main.o
 .debug_info      0x03d9f8       0xa489 ..\..\plib\p33SMPS_mcal.X\dist\__P33SMPS_CK__\debug\p33SMPS_mcal.X.a(p33SMPS_hsadc.o)
 .debug_info      0x047e81       0x463a ..\..\plib\p33SMPS_mcal.X\dist\__P33SMPS_CK__\debug\p33SMPS_mcal.X.a(p33SMPS_oscillator.o)
 .debug_info      0x04c4bb        0xefb ..\..\plib\p33SMPS_mcal.X\dist\__P33SMPS_CK__\debug\p33SMPS_mcal.X.a(p33SMPS_timer.o)
 .debug_info      0x04d3b6        0x319 ..\..\plib\p33SMPS_mcal.X\dist\__P33SMPS_CK__\debug\p33SMPS_mcal.X.a(p33SMPS_pmd.o)
 .debug_info      0x04d6cf        0x389 ..\..\plib\p33SMPS_mcal.X\dist\__P33SMPS_CK__\debug\p33SMPS_mcal.X.a(p33SMPS_pps.o)
 .debug_info      0x04da58       0x2e66 ..\..\plib\p33SMPS_mcal.X\dist\__P33SMPS_CK__\debug\p33SMPS_mcal.X.a(p33SMPS_irq.o)
 .debug_info      0x0508be        0xa9b ..\..\plib\p33SMPS_mcal.X\dist\__P33SMPS_CK__\debug\p33SMPS_mcal.X.a(p33SMPS_gpio.o)
 .debug_info      0x051359       0x38ee ..\..\plib\p33SMPS_mcal.X\dist\__P33SMPS_CK__\debug\p33SMPS_mcal.X.a(p33SMPS_uart.o)
 .debug_info      0x054c47       0x5551 ..\..\plib\p33SMPS_mcal.X\dist\__P33SMPS_CK__\debug\p33SMPS_mcal.X.a(p33SMPS_hspwm_c.o)
 .debug_info      0x05a198       0x10ed ..\..\plib\p33SMPS_mcal.X\dist\__P33SMPS_CK__\debug\p33SMPS_mcal.X.a(p33SMPS_crc.o)
 *(.gnu.linkonce.wi.*)

.debug_abbrev     0x000000       0x500e
 *(.debug_abbrev)
 .debug_abbrev    0x000000        0x273 build/00173_USB_PD_BOB_R21/debug/_ext/949971983/fdrv_FaultHandler.o
 .debug_abbrev    0x000273        0x1b8 build/00173_USB_PD_BOB_R21/debug/_ext/949971983/fdrv_TrapHandler.o
 .debug_abbrev    0x00042b        0x16e build/00173_USB_PD_BOB_R21/debug/_ext/949971983/fdrv_FaultObjects.o
 .debug_abbrev    0x000599         0x88 build/00173_USB_PD_BOB_R21/debug/_ext/949971983/os_Initialize.o
 .debug_abbrev    0x000621        0x173 build/00173_USB_PD_BOB_R21/debug/_ext/949971983/os_Scheduler.o
 .debug_abbrev    0x000794        0x18e build/00173_USB_PD_BOB_R21/debug/_ext/949971983/os_TaskManager.o
 .debug_abbrev    0x000922         0x4a build/00173_USB_PD_BOB_R21/debug/_ext/687227054/UserStartupCode.o
 .debug_abbrev    0x00096c         0xd4 build/00173_USB_PD_BOB_R21/debug/_ext/687227054/UserAppManager.o
 .debug_abbrev    0x000a40        0x1bf build/00173_USB_PD_BOB_R21/debug/_ext/687227054/UserFaultObjects.o
 .debug_abbrev    0x000bff         0xf0 build/00173_USB_PD_BOB_R21/debug/_ext/687227054/UserTasks.o
 .debug_abbrev    0x000cef        0x290 build/00173_USB_PD_BOB_R21/debug/_ext/1515990320/smpsDebugUART.o
 .debug_abbrev    0x000f7f         0xd8 build/00173_USB_PD_BOB_R21/debug/_ext/1515990320/smpsDebugUART_UserCID.o
 .debug_abbrev    0x001057        0x1c3 build/00173_USB_PD_BOB_R21/debug/_ext/92048113/debug_uart.o
 .debug_abbrev    0x00121a         0xdc build/00173_USB_PD_BOB_R21/debug/_ext/2109991248/upd_timer.o
 .debug_abbrev    0x0012f6        0x234 build/00173_USB_PD_BOB_R21/debug/_ext/553671219/c4swbb_control.o
 .debug_abbrev    0x00152a        0x278 build/00173_USB_PD_BOB_R21/debug/_ext/553671219/c4swbb_pconfig.o
 .debug_abbrev    0x0017a2        0x108 build/00173_USB_PD_BOB_R21/debug/_ext/553671219/cha_iloop.o
 .debug_abbrev    0x0018aa        0x108 build/00173_USB_PD_BOB_R21/debug/_ext/553671219/cha_vloop.o
 .debug_abbrev    0x0019b2        0x108 build/00173_USB_PD_BOB_R21/debug/_ext/553671219/chb_iloop.o
 .debug_abbrev    0x001aba        0x108 build/00173_USB_PD_BOB_R21/debug/_ext/553671219/chb_vloop.o
 .debug_abbrev    0x001bc2         0x14 build/00173_USB_PD_BOB_R21/debug/_ext/553671219/c4swbb_write_pwm.o
 .debug_abbrev    0x001bd6         0x14 build/00173_USB_PD_BOB_R21/debug/_ext/553671219/cha_iloop_asm.o
 .debug_abbrev    0x001bea         0x14 build/00173_USB_PD_BOB_R21/debug/_ext/553671219/cha_vloop_asm.o
 .debug_abbrev    0x001bfe         0x14 build/00173_USB_PD_BOB_R21/debug/_ext/553671219/chb_iloop_asm.o
 .debug_abbrev    0x001c12         0x14 build/00173_USB_PD_BOB_R21/debug/_ext/553671219/chb_vloop_asm.o
 .debug_abbrev    0x001c26        0x1a6 build/00173_USB_PD_BOB_R21/debug/_ext/1494078692/spi2.o
 .debug_abbrev    0x001dcc         0xab build/00173_USB_PD_BOB_R21/debug/_ext/1666088709/cfg_globals.o
 .debug_abbrev    0x001e77         0x8a build/00173_USB_PD_BOB_R21/debug/_ext/1666088709/debug.o
 .debug_abbrev    0x001f01        0x1a9 build/00173_USB_PD_BOB_R21/debug/_ext/1666088709/generic_timer.o
 .debug_abbrev    0x0020aa        0x1c8 build/00173_USB_PD_BOB_R21/debug/_ext/1666088709/int_globals.o
 .debug_abbrev    0x002272        0x12b build/00173_USB_PD_BOB_R21/debug/_ext/1666088709/pd_main.o
 .debug_abbrev    0x00239d        0x2a4 build/00173_USB_PD_BOB_R21/debug/_ext/1666088709/policy_engine.o
 .debug_abbrev    0x002641         0x1f build/00173_USB_PD_BOB_R21/debug/_ext/1666088709/policy_engine_fwup.o
 .debug_abbrev    0x002660         0x1f build/00173_USB_PD_BOB_R21/debug/_ext/1666088709/policy_engine_snk.o
 .debug_abbrev    0x00267f        0x184 build/00173_USB_PD_BOB_R21/debug/_ext/1666088709/policy_engine_src.o
 .debug_abbrev    0x002803        0x2c5 build/00173_USB_PD_BOB_R21/debug/_ext/1666088709/policy_manager.o
 .debug_abbrev    0x002ac8        0x2c1 build/00173_USB_PD_BOB_R21/debug/_ext/1666088709/protocol_layer.o
 .debug_abbrev    0x002d89        0x25f build/00173_USB_PD_BOB_R21/debug/_ext/1666088709/typeC_control.o
 .debug_abbrev    0x002fe8        0x19c build/00173_USB_PD_BOB_R21/debug/_ext/1666088709/upd_hw.o
 .debug_abbrev    0x003184         0x8d build/00173_USB_PD_BOB_R21/debug/_ext/1666088709/upd_interrupts.o
 .debug_abbrev    0x003211        0x300 build/00173_USB_PD_BOB_R21/debug/_ext/481295256/hook_functions.o
 .debug_abbrev    0x003511        0x164 build/00173_USB_PD_BOB_R21/debug/_ext/481295256/thermal_power_management.o
 .debug_abbrev    0x003675         0x4a build/00173_USB_PD_BOB_R21/debug/_ext/1838571682/task_Idle.o
 .debug_abbrev    0x0036bf        0x135 build/00173_USB_PD_BOB_R21/debug/_ext/1838571682/task_PDStack.o
 .debug_abbrev    0x0037f4        0x2a7 build/00173_USB_PD_BOB_R21/debug/_ext/1838571682/task_PowerControl.o
 .debug_abbrev    0x003a9b        0x1fb build/00173_USB_PD_BOB_R21/debug/_ext/1838571682/task_DebugUART.o
 .debug_abbrev    0x003c96         0x1f build/00173_USB_PD_BOB_R21/debug/_ext/659850787/apl.o
 .debug_abbrev    0x003cb5         0x1f build/00173_USB_PD_BOB_R21/debug/_ext/659857049/hal.o
 .debug_abbrev    0x003cd4          0x1 build/00173_USB_PD_BOB_R21/debug/_ext/391766742/config_bits_P33CH.o
 .debug_abbrev    0x003cd5         0x1f build/00173_USB_PD_BOB_R21/debug/_ext/391766742/config_bits_P33CK.o
 .debug_abbrev    0x003cf4         0xbf build/00173_USB_PD_BOB_R21/debug/_ext/1171588148/init_dsp.o
 .debug_abbrev    0x003db3         0x88 build/00173_USB_PD_BOB_R21/debug/_ext/1171588148/init_fosc.o
 .debug_abbrev    0x003e3b         0x4a build/00173_USB_PD_BOB_R21/debug/_ext/1171588148/init_gpio.o
 .debug_abbrev    0x003e85        0x12c build/00173_USB_PD_BOB_R21/debug/_ext/1171588148/init_irq.o
 .debug_abbrev    0x003fb1        0x101 build/00173_USB_PD_BOB_R21/debug/_ext/1171588148/init_timer.o
 .debug_abbrev    0x0040b2         0x1f build/00173_USB_PD_BOB_R21/debug/_ext/1019117317/mcal.o
 .debug_abbrev    0x0040d1         0x1f build/00173_USB_PD_BOB_R21/debug/_ext/659867775/sfl.o
 .debug_abbrev    0x0040f0         0x36 build/00173_USB_PD_BOB_R21/debug/_ext/1360937237/main.o
 .debug_abbrev    0x004126        0x1bf ..\..\plib\p33SMPS_mcal.X\dist\__P33SMPS_CK__\debug\p33SMPS_mcal.X.a(p33SMPS_hsadc.o)
 .debug_abbrev    0x0042e5        0x1ca ..\..\plib\p33SMPS_mcal.X\dist\__P33SMPS_CK__\debug\p33SMPS_mcal.X.a(p33SMPS_oscillator.o)
 .debug_abbrev    0x0044af        0x165 ..\..\plib\p33SMPS_mcal.X\dist\__P33SMPS_CK__\debug\p33SMPS_mcal.X.a(p33SMPS_timer.o)
 .debug_abbrev    0x004614         0xd3 ..\..\plib\p33SMPS_mcal.X\dist\__P33SMPS_CK__\debug\p33SMPS_mcal.X.a(p33SMPS_pmd.o)
 .debug_abbrev    0x0046e7        0x132 ..\..\plib\p33SMPS_mcal.X\dist\__P33SMPS_CK__\debug\p33SMPS_mcal.X.a(p33SMPS_pps.o)
 .debug_abbrev    0x004819        0x1ee ..\..\plib\p33SMPS_mcal.X\dist\__P33SMPS_CK__\debug\p33SMPS_mcal.X.a(p33SMPS_irq.o)
 .debug_abbrev    0x004a07         0xf4 ..\..\plib\p33SMPS_mcal.X\dist\__P33SMPS_CK__\debug\p33SMPS_mcal.X.a(p33SMPS_gpio.o)
 .debug_abbrev    0x004afb        0x1ce ..\..\plib\p33SMPS_mcal.X\dist\__P33SMPS_CK__\debug\p33SMPS_mcal.X.a(p33SMPS_uart.o)
 .debug_abbrev    0x004cc9        0x21d ..\..\plib\p33SMPS_mcal.X\dist\__P33SMPS_CK__\debug\p33SMPS_mcal.X.a(p33SMPS_hspwm_c.o)
 .debug_abbrev    0x004ee6        0x128 ..\..\plib\p33SMPS_mcal.X\dist\__P33SMPS_CK__\debug\p33SMPS_mcal.X.a(p33SMPS_crc.o)

.debug_line       0x000000       0x81c6
 *(.debug_line)
 .debug_line      0x000000        0x54f build/00173_USB_PD_BOB_R21/debug/_ext/949971983/fdrv_FaultHandler.o
 .debug_line      0x00054f        0x1eb build/00173_USB_PD_BOB_R21/debug/_ext/949971983/fdrv_TrapHandler.o
 .debug_line      0x00073a        0x1e0 build/00173_USB_PD_BOB_R21/debug/_ext/949971983/fdrv_FaultObjects.o
 .debug_line      0x00091a        0x10e build/00173_USB_PD_BOB_R21/debug/_ext/949971983/os_Initialize.o
 .debug_line      0x000a28        0x1e7 build/00173_USB_PD_BOB_R21/debug/_ext/949971983/os_Scheduler.o
 .debug_line      0x000c0f        0x2a9 build/00173_USB_PD_BOB_R21/debug/_ext/949971983/os_TaskManager.o
 .debug_line      0x000eb8         0xa6 build/00173_USB_PD_BOB_R21/debug/_ext/687227054/UserStartupCode.o
 .debug_line      0x000f5e         0xde build/00173_USB_PD_BOB_R21/debug/_ext/687227054/UserAppManager.o
 .debug_line      0x00103c        0x32d build/00173_USB_PD_BOB_R21/debug/_ext/687227054/UserFaultObjects.o
 .debug_line      0x001369         0xcc build/00173_USB_PD_BOB_R21/debug/_ext/687227054/UserTasks.o
 .debug_line      0x001435        0x3f0 build/00173_USB_PD_BOB_R21/debug/_ext/1515990320/smpsDebugUART.o
 .debug_line      0x001825         0xfd build/00173_USB_PD_BOB_R21/debug/_ext/1515990320/smpsDebugUART_UserCID.o
 .debug_line      0x001922        0x188 build/00173_USB_PD_BOB_R21/debug/_ext/92048113/debug_uart.o
 .debug_line      0x001aaa        0x15f build/00173_USB_PD_BOB_R21/debug/_ext/2109991248/upd_timer.o
 .debug_line      0x001c09        0x313 build/00173_USB_PD_BOB_R21/debug/_ext/553671219/c4swbb_control.o
 .debug_line      0x001f1c        0x2b3 build/00173_USB_PD_BOB_R21/debug/_ext/553671219/c4swbb_pconfig.o
 .debug_line      0x0021cf        0x162 build/00173_USB_PD_BOB_R21/debug/_ext/553671219/cha_iloop.o
 .debug_line      0x002331        0x162 build/00173_USB_PD_BOB_R21/debug/_ext/553671219/cha_vloop.o
 .debug_line      0x002493        0x162 build/00173_USB_PD_BOB_R21/debug/_ext/553671219/chb_iloop.o
 .debug_line      0x0025f5        0x162 build/00173_USB_PD_BOB_R21/debug/_ext/553671219/chb_vloop.o
 .debug_line      0x002757         0x8d build/00173_USB_PD_BOB_R21/debug/_ext/553671219/c4swbb_write_pwm.o
 .debug_line      0x0027e4         0xbd build/00173_USB_PD_BOB_R21/debug/_ext/553671219/cha_iloop_asm.o
 .debug_line      0x0028a1         0xbd build/00173_USB_PD_BOB_R21/debug/_ext/553671219/cha_vloop_asm.o
 .debug_line      0x00295e         0xbd build/00173_USB_PD_BOB_R21/debug/_ext/553671219/chb_iloop_asm.o
 .debug_line      0x002a1b         0xbd build/00173_USB_PD_BOB_R21/debug/_ext/553671219/chb_vloop_asm.o
 .debug_line      0x002ad8        0x1d6 build/00173_USB_PD_BOB_R21/debug/_ext/1494078692/spi2.o
 .debug_line      0x002cae        0x101 build/00173_USB_PD_BOB_R21/debug/_ext/1666088709/cfg_globals.o
 .debug_line      0x002daf         0x6a build/00173_USB_PD_BOB_R21/debug/_ext/1666088709/debug.o
 .debug_line      0x002e19        0x24e build/00173_USB_PD_BOB_R21/debug/_ext/1666088709/generic_timer.o
 .debug_line      0x003067         0xf8 build/00173_USB_PD_BOB_R21/debug/_ext/1666088709/int_globals.o
 .debug_line      0x00315f        0x17a build/00173_USB_PD_BOB_R21/debug/_ext/1666088709/pd_main.o
 .debug_line      0x0032d9        0x5ad build/00173_USB_PD_BOB_R21/debug/_ext/1666088709/policy_engine.o
 .debug_line      0x003886         0x1a build/00173_USB_PD_BOB_R21/debug/_ext/1666088709/policy_engine_fwup.o
 .debug_line      0x0038a0         0x1a build/00173_USB_PD_BOB_R21/debug/_ext/1666088709/policy_engine_snk.o
 .debug_line      0x0038ba        0x444 build/00173_USB_PD_BOB_R21/debug/_ext/1666088709/policy_engine_src.o
 .debug_line      0x003cfe        0x25e build/00173_USB_PD_BOB_R21/debug/_ext/1666088709/policy_manager.o
 .debug_line      0x003f5c        0x719 build/00173_USB_PD_BOB_R21/debug/_ext/1666088709/protocol_layer.o
 .debug_line      0x004675        0x924 build/00173_USB_PD_BOB_R21/debug/_ext/1666088709/typeC_control.o
 .debug_line      0x004f99        0x345 build/00173_USB_PD_BOB_R21/debug/_ext/1666088709/upd_hw.o
 .debug_line      0x0052de        0x11c build/00173_USB_PD_BOB_R21/debug/_ext/1666088709/upd_interrupts.o
 .debug_line      0x0053fa        0x34a build/00173_USB_PD_BOB_R21/debug/_ext/481295256/hook_functions.o
 .debug_line      0x005744        0x24f build/00173_USB_PD_BOB_R21/debug/_ext/481295256/thermal_power_management.o
 .debug_line      0x005993         0x9f build/00173_USB_PD_BOB_R21/debug/_ext/1838571682/task_Idle.o
 .debug_line      0x005a32        0x18e build/00173_USB_PD_BOB_R21/debug/_ext/1838571682/task_PDStack.o
 .debug_line      0x005bc0        0x4ec build/00173_USB_PD_BOB_R21/debug/_ext/1838571682/task_PowerControl.o
 .debug_line      0x0060ac        0x259 build/00173_USB_PD_BOB_R21/debug/_ext/1838571682/task_DebugUART.o
 .debug_line      0x006305         0x1a build/00173_USB_PD_BOB_R21/debug/_ext/659850787/apl.o
 .debug_line      0x00631f         0x1a build/00173_USB_PD_BOB_R21/debug/_ext/659857049/hal.o
 .debug_line      0x006339         0x1a build/00173_USB_PD_BOB_R21/debug/_ext/391766742/config_bits_P33CH.o
 .debug_line      0x006353         0x1a build/00173_USB_PD_BOB_R21/debug/_ext/391766742/config_bits_P33CK.o
 .debug_line      0x00636d        0x181 build/00173_USB_PD_BOB_R21/debug/_ext/1171588148/init_dsp.o
 .debug_line      0x0064ee        0x101 build/00173_USB_PD_BOB_R21/debug/_ext/1171588148/init_fosc.o
 .debug_line      0x0065ef         0xa9 build/00173_USB_PD_BOB_R21/debug/_ext/1171588148/init_gpio.o
 .debug_line      0x006698         0xf7 build/00173_USB_PD_BOB_R21/debug/_ext/1171588148/init_irq.o
 .debug_line      0x00678f        0x14f build/00173_USB_PD_BOB_R21/debug/_ext/1171588148/init_timer.o
 .debug_line      0x0068de         0x1a build/00173_USB_PD_BOB_R21/debug/_ext/1019117317/mcal.o
 .debug_line      0x0068f8         0x1a build/00173_USB_PD_BOB_R21/debug/_ext/659867775/sfl.o
 .debug_line      0x006912         0x40 build/00173_USB_PD_BOB_R21/debug/_ext/1360937237/main.o
 .debug_line      0x006952        0x358 ..\..\plib\p33SMPS_mcal.X\dist\__P33SMPS_CK__\debug\p33SMPS_mcal.X.a(p33SMPS_hsadc.o)
 .debug_line      0x006caa        0x268 ..\..\plib\p33SMPS_mcal.X\dist\__P33SMPS_CK__\debug\p33SMPS_mcal.X.a(p33SMPS_oscillator.o)
 .debug_line      0x006f12        0x21d ..\..\plib\p33SMPS_mcal.X\dist\__P33SMPS_CK__\debug\p33SMPS_mcal.X.a(p33SMPS_timer.o)
 .debug_line      0x00712f        0x146 ..\..\plib\p33SMPS_mcal.X\dist\__P33SMPS_CK__\debug\p33SMPS_mcal.X.a(p33SMPS_pmd.o)
 .debug_line      0x007275        0x195 ..\..\plib\p33SMPS_mcal.X\dist\__P33SMPS_CK__\debug\p33SMPS_mcal.X.a(p33SMPS_pps.o)
 .debug_line      0x00740a        0x190 ..\..\plib\p33SMPS_mcal.X\dist\__P33SMPS_CK__\debug\p33SMPS_mcal.X.a(p33SMPS_irq.o)
 .debug_line      0x00759a        0x276 ..\..\plib\p33SMPS_mcal.X\dist\__P33SMPS_CK__\debug\p33SMPS_mcal.X.a(p33SMPS_gpio.o)
 .debug_line      0x007810        0x446 ..\..\plib\p33SMPS_mcal.X\dist\__P33SMPS_CK__\debug\p33SMPS_mcal.X.a(p33SMPS_uart.o)
 .debug_line      0x007c56        0x3cb ..\..\plib\p33SMPS_mcal.X\dist\__P33SMPS_CK__\debug\p33SMPS_mcal.X.a(p33SMPS_hspwm_c.o)
 .debug_line      0x008021        0x1a5 ..\..\plib\p33SMPS_mcal.X\dist\__P33SMPS_CK__\debug\p33SMPS_mcal.X.a(p33SMPS_crc.o)

.debug_frame      0x000000       0x2d90
 *(.debug_frame)
 .debug_frame     0x000000        0x120 build/00173_USB_PD_BOB_R21/debug/_ext/949971983/fdrv_FaultHandler.o
 .debug_frame     0x000120        0x1d4 build/00173_USB_PD_BOB_R21/debug/_ext/949971983/fdrv_TrapHandler.o
 .debug_frame     0x0002f4         0x80 build/00173_USB_PD_BOB_R21/debug/_ext/949971983/fdrv_FaultObjects.o
 .debug_frame     0x000374         0x8a build/00173_USB_PD_BOB_R21/debug/_ext/949971983/os_Initialize.o
 .debug_frame     0x0003fe         0x3a build/00173_USB_PD_BOB_R21/debug/_ext/949971983/os_Scheduler.o
 .debug_frame     0x000438         0x5a build/00173_USB_PD_BOB_R21/debug/_ext/949971983/os_TaskManager.o
 .debug_frame     0x000492         0x24 build/00173_USB_PD_BOB_R21/debug/_ext/687227054/UserStartupCode.o
 .debug_frame     0x0004b6         0x68 build/00173_USB_PD_BOB_R21/debug/_ext/687227054/UserAppManager.o
 .debug_frame     0x00051e        0x164 build/00173_USB_PD_BOB_R21/debug/_ext/687227054/UserFaultObjects.o
 .debug_frame     0x000682         0x54 build/00173_USB_PD_BOB_R21/debug/_ext/687227054/UserTasks.o
 .debug_frame     0x0006d6        0x14a build/00173_USB_PD_BOB_R21/debug/_ext/1515990320/smpsDebugUART.o
 .debug_frame     0x000820         0x30 build/00173_USB_PD_BOB_R21/debug/_ext/1515990320/smpsDebugUART_UserCID.o
 .debug_frame     0x000850         0x64 build/00173_USB_PD_BOB_R21/debug/_ext/92048113/debug_uart.o
 .debug_frame     0x0008b4         0x58 build/00173_USB_PD_BOB_R21/debug/_ext/2109991248/upd_timer.o
 .debug_frame     0x00090c         0x8a build/00173_USB_PD_BOB_R21/debug/_ext/553671219/c4swbb_control.o
 .debug_frame     0x000996        0x164 build/00173_USB_PD_BOB_R21/debug/_ext/553671219/c4swbb_pconfig.o
 .debug_frame     0x000afa         0x30 build/00173_USB_PD_BOB_R21/debug/_ext/553671219/cha_iloop.o
 .debug_frame     0x000b2a         0x30 build/00173_USB_PD_BOB_R21/debug/_ext/553671219/cha_vloop.o
 .debug_frame     0x000b5a         0x30 build/00173_USB_PD_BOB_R21/debug/_ext/553671219/chb_iloop.o
 .debug_frame     0x000b8a         0x30 build/00173_USB_PD_BOB_R21/debug/_ext/553671219/chb_vloop.o
 .debug_frame     0x000bba         0x8c build/00173_USB_PD_BOB_R21/debug/_ext/1494078692/spi2.o
 .debug_frame     0x000c46         0x24 build/00173_USB_PD_BOB_R21/debug/_ext/1666088709/cfg_globals.o
 .debug_frame     0x000c6a         0xa4 build/00173_USB_PD_BOB_R21/debug/_ext/1666088709/debug.o
 .debug_frame     0x000d0e         0x9c build/00173_USB_PD_BOB_R21/debug/_ext/1666088709/generic_timer.o
 .debug_frame     0x000daa         0x3e build/00173_USB_PD_BOB_R21/debug/_ext/1666088709/int_globals.o
 .debug_frame     0x000de8         0x96 build/00173_USB_PD_BOB_R21/debug/_ext/1666088709/pd_main.o
 .debug_frame     0x000e7e        0x1c4 build/00173_USB_PD_BOB_R21/debug/_ext/1666088709/policy_engine.o
 .debug_frame     0x001042         0x50 build/00173_USB_PD_BOB_R21/debug/_ext/1666088709/policy_engine_src.o
 .debug_frame     0x001092        0x222 build/00173_USB_PD_BOB_R21/debug/_ext/1666088709/policy_manager.o
 .debug_frame     0x0012b4        0x452 build/00173_USB_PD_BOB_R21/debug/_ext/1666088709/protocol_layer.o
 .debug_frame     0x001706        0x380 build/00173_USB_PD_BOB_R21/debug/_ext/1666088709/typeC_control.o
 .debug_frame     0x001a86        0x2bc build/00173_USB_PD_BOB_R21/debug/_ext/1666088709/upd_hw.o
 .debug_frame     0x001d42         0x36 build/00173_USB_PD_BOB_R21/debug/_ext/1666088709/upd_interrupts.o
 .debug_frame     0x001d78        0x290 build/00173_USB_PD_BOB_R21/debug/_ext/481295256/hook_functions.o
 .debug_frame     0x002008         0x90 build/00173_USB_PD_BOB_R21/debug/_ext/481295256/thermal_power_management.o
 .debug_frame     0x002098         0x24 build/00173_USB_PD_BOB_R21/debug/_ext/1838571682/task_Idle.o
 .debug_frame     0x0020bc         0x34 build/00173_USB_PD_BOB_R21/debug/_ext/1838571682/task_PDStack.o
 .debug_frame     0x0020f0        0x19c build/00173_USB_PD_BOB_R21/debug/_ext/1838571682/task_PowerControl.o
 .debug_frame     0x00228c         0x4c build/00173_USB_PD_BOB_R21/debug/_ext/1838571682/task_DebugUART.o
 .debug_frame     0x0022d8         0x24 build/00173_USB_PD_BOB_R21/debug/_ext/1171588148/init_dsp.o
 .debug_frame     0x0022fc         0x4c build/00173_USB_PD_BOB_R21/debug/_ext/1171588148/init_fosc.o
 .debug_frame     0x002348         0x24 build/00173_USB_PD_BOB_R21/debug/_ext/1171588148/init_gpio.o
 .debug_frame     0x00236c         0x30 build/00173_USB_PD_BOB_R21/debug/_ext/1171588148/init_irq.o
 .debug_frame     0x00239c         0x52 build/00173_USB_PD_BOB_R21/debug/_ext/1171588148/init_timer.o
 .debug_frame     0x0023ee         0x24 build/00173_USB_PD_BOB_R21/debug/_ext/1360937237/main.o
 .debug_frame     0x002412        0x1be ..\..\plib\p33SMPS_mcal.X\dist\__P33SMPS_CK__\debug\p33SMPS_mcal.X.a(p33SMPS_hsadc.o)
 .debug_frame     0x0025d0         0xbc ..\..\plib\p33SMPS_mcal.X\dist\__P33SMPS_CK__\debug\p33SMPS_mcal.X.a(p33SMPS_oscillator.o)
 .debug_frame     0x00268c         0xf4 ..\..\plib\p33SMPS_mcal.X\dist\__P33SMPS_CK__\debug\p33SMPS_mcal.X.a(p33SMPS_timer.o)
 .debug_frame     0x002780         0x30 ..\..\plib\p33SMPS_mcal.X\dist\__P33SMPS_CK__\debug\p33SMPS_mcal.X.a(p33SMPS_pmd.o)
 .debug_frame     0x0027b0         0xbc ..\..\plib\p33SMPS_mcal.X\dist\__P33SMPS_CK__\debug\p33SMPS_mcal.X.a(p33SMPS_pps.o)
 .debug_frame     0x00286c         0x84 ..\..\plib\p33SMPS_mcal.X\dist\__P33SMPS_CK__\debug\p33SMPS_mcal.X.a(p33SMPS_irq.o)
 .debug_frame     0x0028f0         0x84 ..\..\plib\p33SMPS_mcal.X\dist\__P33SMPS_CK__\debug\p33SMPS_mcal.X.a(p33SMPS_gpio.o)
 .debug_frame     0x002974        0x1e0 ..\..\plib\p33SMPS_mcal.X\dist\__P33SMPS_CK__\debug\p33SMPS_mcal.X.a(p33SMPS_uart.o)
 .debug_frame     0x002b54        0x1f0 ..\..\plib\p33SMPS_mcal.X\dist\__P33SMPS_CK__\debug\p33SMPS_mcal.X.a(p33SMPS_hspwm_c.o)
 .debug_frame     0x002d44         0x4c ..\..\plib\p33SMPS_mcal.X\dist\__P33SMPS_CK__\debug\p33SMPS_mcal.X.a(p33SMPS_crc.o)

.debug_str        0x000000       0x1ed0
 *(.debug_str)
 .debug_str       0x000000        0x13d build/00173_USB_PD_BOB_R21/debug/_ext/949971983/fdrv_FaultHandler.o
 .debug_str       0x00013d         0x1b build/00173_USB_PD_BOB_R21/debug/_ext/949971983/fdrv_TrapHandler.o
 .debug_str       0x000158         0xe9 build/00173_USB_PD_BOB_R21/debug/_ext/949971983/fdrv_FaultObjects.o
 .debug_str       0x000241         0x4c build/00173_USB_PD_BOB_R21/debug/_ext/949971983/os_Scheduler.o
 .debug_str       0x00028d        0x16d build/00173_USB_PD_BOB_R21/debug/_ext/949971983/os_TaskManager.o
 .debug_str       0x0003fa          0xc build/00173_USB_PD_BOB_R21/debug/_ext/687227054/UserAppManager.o
 .debug_str       0x000406        0x200 build/00173_USB_PD_BOB_R21/debug/_ext/687227054/UserFaultObjects.o
 .debug_str       0x000606         0x88 build/00173_USB_PD_BOB_R21/debug/_ext/687227054/UserTasks.o
 .debug_str       0x00068e         0x85 build/00173_USB_PD_BOB_R21/debug/_ext/1515990320/smpsDebugUART.o
 .debug_str       0x000713          0x6 build/00173_USB_PD_BOB_R21/debug/_ext/1515990320/smpsDebugUART_UserCID.o
 .debug_str       0x000719         0x58 build/00173_USB_PD_BOB_R21/debug/_ext/92048113/debug_uart.o
 .debug_str       0x000771         0x8a build/00173_USB_PD_BOB_R21/debug/_ext/2109991248/upd_timer.o
 .debug_str       0x0007fb         0x27 build/00173_USB_PD_BOB_R21/debug/_ext/553671219/c4swbb_control.o
 .debug_str       0x000822         0x73 build/00173_USB_PD_BOB_R21/debug/_ext/553671219/c4swbb_pconfig.o
 .debug_str       0x000895        0x132 build/00173_USB_PD_BOB_R21/debug/_ext/553671219/cha_iloop.o
 .debug_str       0x0009c7        0x132 build/00173_USB_PD_BOB_R21/debug/_ext/553671219/cha_vloop.o
 .debug_str       0x000af9        0x132 build/00173_USB_PD_BOB_R21/debug/_ext/553671219/chb_iloop.o
 .debug_str       0x000c2b        0x132 build/00173_USB_PD_BOB_R21/debug/_ext/553671219/chb_vloop.o
 .debug_str       0x000d5d         0xeb build/00173_USB_PD_BOB_R21/debug/_ext/1494078692/spi2.o
 .debug_str       0x000e48         0x17 build/00173_USB_PD_BOB_R21/debug/_ext/1666088709/debug.o
 .debug_str       0x000e5f         0x78 build/00173_USB_PD_BOB_R21/debug/_ext/1666088709/generic_timer.o
 .debug_str       0x000ed7         0x3c build/00173_USB_PD_BOB_R21/debug/_ext/1666088709/int_globals.o
 .debug_str       0x000f13         0x26 build/00173_USB_PD_BOB_R21/debug/_ext/1666088709/pd_main.o
 .debug_str       0x000f39         0x6e build/00173_USB_PD_BOB_R21/debug/_ext/1666088709/policy_engine.o
 .debug_str       0x000fa7         0x57 build/00173_USB_PD_BOB_R21/debug/_ext/1666088709/policy_engine_src.o
 .debug_str       0x000ffe         0xc8 build/00173_USB_PD_BOB_R21/debug/_ext/1666088709/policy_manager.o
 .debug_str       0x0010c6        0x18c build/00173_USB_PD_BOB_R21/debug/_ext/1666088709/protocol_layer.o
 .debug_str       0x001252         0xed build/00173_USB_PD_BOB_R21/debug/_ext/1666088709/typeC_control.o
 .debug_str       0x00133f         0x58 build/00173_USB_PD_BOB_R21/debug/_ext/1666088709/upd_hw.o
 .debug_str       0x001397         0x10 build/00173_USB_PD_BOB_R21/debug/_ext/1666088709/upd_interrupts.o
 .debug_str       0x0013a7         0xdb build/00173_USB_PD_BOB_R21/debug/_ext/481295256/hook_functions.o
 .debug_str       0x001482        0x13e build/00173_USB_PD_BOB_R21/debug/_ext/481295256/thermal_power_management.o
 .debug_str       0x0015c0         0x26 build/00173_USB_PD_BOB_R21/debug/_ext/1838571682/task_PDStack.o
 .debug_str       0x0015e6        0x357 build/00173_USB_PD_BOB_R21/debug/_ext/1838571682/task_PowerControl.o
 .debug_str       0x00193d         0x8b build/00173_USB_PD_BOB_R21/debug/_ext/1838571682/task_DebugUART.o
 .debug_str       0x0019c8          0xb build/00173_USB_PD_BOB_R21/debug/_ext/1171588148/init_dsp.o
 .debug_str       0x0019d3          0x6 build/00173_USB_PD_BOB_R21/debug/_ext/1171588148/init_irq.o
 .debug_str       0x0019d9         0x13 build/00173_USB_PD_BOB_R21/debug/_ext/1171588148/init_timer.o
 .debug_str       0x0019ec        0x191 ..\..\plib\p33SMPS_mcal.X\dist\__P33SMPS_CK__\debug\p33SMPS_mcal.X.a(p33SMPS_hsadc.o)
 .debug_str       0x001b7d         0x8b ..\..\plib\p33SMPS_mcal.X\dist\__P33SMPS_CK__\debug\p33SMPS_mcal.X.a(p33SMPS_oscillator.o)
 .debug_str       0x001c08         0x45 ..\..\plib\p33SMPS_mcal.X\dist\__P33SMPS_CK__\debug\p33SMPS_mcal.X.a(p33SMPS_timer.o)
 .debug_str       0x001c4d          0xb ..\..\plib\p33SMPS_mcal.X\dist\__P33SMPS_CK__\debug\p33SMPS_mcal.X.a(p33SMPS_pmd.o)
 .debug_str       0x001c58         0x15 ..\..\plib\p33SMPS_mcal.X\dist\__P33SMPS_CK__\debug\p33SMPS_mcal.X.a(p33SMPS_pps.o)
 .debug_str       0x001c6d         0x32 ..\..\plib\p33SMPS_mcal.X\dist\__P33SMPS_CK__\debug\p33SMPS_mcal.X.a(p33SMPS_irq.o)
 .debug_str       0x001c9f          0x9 ..\..\plib\p33SMPS_mcal.X\dist\__P33SMPS_CK__\debug\p33SMPS_mcal.X.a(p33SMPS_gpio.o)
 .debug_str       0x001ca8         0x81 ..\..\plib\p33SMPS_mcal.X\dist\__P33SMPS_CK__\debug\p33SMPS_mcal.X.a(p33SMPS_uart.o)
 .debug_str       0x001d29        0x16e ..\..\plib\p33SMPS_mcal.X\dist\__P33SMPS_CK__\debug\p33SMPS_mcal.X.a(p33SMPS_hspwm_c.o)
 .debug_str       0x001e97         0x39 ..\..\plib\p33SMPS_mcal.X\dist\__P33SMPS_CK__\debug\p33SMPS_mcal.X.a(p33SMPS_crc.o)

.debug_loc
 *(.debug_loc)

.debug_macinfo
 *(.debug_macinfo)

.debug_pubnames
                  0x000000       0x3893
 *(.debug_pubnames)
 .debug_pubnames
                  0x000000        0x103 build/00173_USB_PD_BOB_R21/debug/_ext/949971983/fdrv_FaultHandler.o
 .debug_pubnames
                  0x000103         0xd9 build/00173_USB_PD_BOB_R21/debug/_ext/949971983/fdrv_TrapHandler.o
 .debug_pubnames
                  0x0001dc        0x240 build/00173_USB_PD_BOB_R21/debug/_ext/949971983/fdrv_FaultObjects.o
 .debug_pubnames
                  0x00041c         0x60 build/00173_USB_PD_BOB_R21/debug/_ext/949971983/os_Initialize.o
 .debug_pubnames
                  0x00047c         0x5c build/00173_USB_PD_BOB_R21/debug/_ext/949971983/os_Scheduler.o
 .debug_pubnames
                  0x0004d8         0x75 build/00173_USB_PD_BOB_R21/debug/_ext/949971983/os_TaskManager.o
 .debug_pubnames
                  0x00054d         0x2d build/00173_USB_PD_BOB_R21/debug/_ext/687227054/UserStartupCode.o
 .debug_pubnames
                  0x00057a         0x77 build/00173_USB_PD_BOB_R21/debug/_ext/687227054/UserAppManager.o
 .debug_pubnames
                  0x0005f1        0x490 build/00173_USB_PD_BOB_R21/debug/_ext/687227054/UserFaultObjects.o
 .debug_pubnames
                  0x000a81        0x1f3 build/00173_USB_PD_BOB_R21/debug/_ext/687227054/UserTasks.o
 .debug_pubnames
                  0x000c74        0x152 build/00173_USB_PD_BOB_R21/debug/_ext/1515990320/smpsDebugUART.o
 .debug_pubnames
                  0x000dc6         0x33 build/00173_USB_PD_BOB_R21/debug/_ext/1515990320/smpsDebugUART_UserCID.o
 .debug_pubnames
                  0x000df9         0xb9 build/00173_USB_PD_BOB_R21/debug/_ext/92048113/debug_uart.o
 .debug_pubnames
                  0x000eb2         0x3b build/00173_USB_PD_BOB_R21/debug/_ext/2109991248/upd_timer.o
 .debug_pubnames
                  0x000eed         0x9d build/00173_USB_PD_BOB_R21/debug/_ext/553671219/c4swbb_control.o
 .debug_pubnames
                  0x000f8a        0x108 build/00173_USB_PD_BOB_R21/debug/_ext/553671219/c4swbb_pconfig.o
 .debug_pubnames
                  0x001092        0x18b build/00173_USB_PD_BOB_R21/debug/_ext/553671219/cha_iloop.o
 .debug_pubnames
                  0x00121d        0x18b build/00173_USB_PD_BOB_R21/debug/_ext/553671219/cha_vloop.o
 .debug_pubnames
                  0x0013a8        0x18b build/00173_USB_PD_BOB_R21/debug/_ext/553671219/chb_iloop.o
 .debug_pubnames
                  0x001533        0x18b build/00173_USB_PD_BOB_R21/debug/_ext/553671219/chb_vloop.o
 .debug_pubnames
                  0x0016be         0x95 build/00173_USB_PD_BOB_R21/debug/_ext/1494078692/spi2.o
 .debug_pubnames
                  0x001753         0xaa build/00173_USB_PD_BOB_R21/debug/_ext/1666088709/cfg_globals.o
 .debug_pubnames
                  0x0017fd         0x78 build/00173_USB_PD_BOB_R21/debug/_ext/1666088709/debug.o
 .debug_pubnames
                  0x001875         0x97 build/00173_USB_PD_BOB_R21/debug/_ext/1666088709/generic_timer.o
 .debug_pubnames
                  0x00190c         0xd4 build/00173_USB_PD_BOB_R21/debug/_ext/1666088709/int_globals.o
 .debug_pubnames
                  0x0019e0         0x5e build/00173_USB_PD_BOB_R21/debug/_ext/1666088709/pd_main.o
 .debug_pubnames
                  0x001a3e        0x225 build/00173_USB_PD_BOB_R21/debug/_ext/1666088709/policy_engine.o
 .debug_pubnames
                  0x001c63         0x2c build/00173_USB_PD_BOB_R21/debug/_ext/1666088709/policy_engine_src.o
 .debug_pubnames
                  0x001c8f        0x24b build/00173_USB_PD_BOB_R21/debug/_ext/1666088709/policy_manager.o
 .debug_pubnames
                  0x001eda        0x411 build/00173_USB_PD_BOB_R21/debug/_ext/1666088709/protocol_layer.o
 .debug_pubnames
                  0x0022eb        0x2ae build/00173_USB_PD_BOB_R21/debug/_ext/1666088709/typeC_control.o
 .debug_pubnames
                  0x002599        0x1cf build/00173_USB_PD_BOB_R21/debug/_ext/1666088709/upd_hw.o
 .debug_pubnames
                  0x002768         0x2b build/00173_USB_PD_BOB_R21/debug/_ext/1666088709/upd_interrupts.o
 .debug_pubnames
                  0x002793        0x271 build/00173_USB_PD_BOB_R21/debug/_ext/481295256/hook_functions.o
 .debug_pubnames
                  0x002a04        0x185 build/00173_USB_PD_BOB_R21/debug/_ext/481295256/thermal_power_management.o
 .debug_pubnames
                  0x002b89         0x20 build/00173_USB_PD_BOB_R21/debug/_ext/1838571682/task_Idle.o
 .debug_pubnames
                  0x002ba9         0x4f build/00173_USB_PD_BOB_R21/debug/_ext/1838571682/task_PDStack.o
 .debug_pubnames
                  0x002bf8        0x194 build/00173_USB_PD_BOB_R21/debug/_ext/1838571682/task_PowerControl.o
 .debug_pubnames
                  0x002d8c         0xa4 build/00173_USB_PD_BOB_R21/debug/_ext/1838571682/task_DebugUART.o
 .debug_pubnames
                  0x002e30         0x25 build/00173_USB_PD_BOB_R21/debug/_ext/1171588148/init_dsp.o
 .debug_pubnames
                  0x002e55         0x4d build/00173_USB_PD_BOB_R21/debug/_ext/1171588148/init_fosc.o
 .debug_pubnames
                  0x002ea2         0x26 build/00173_USB_PD_BOB_R21/debug/_ext/1171588148/init_gpio.o
 .debug_pubnames
                  0x002ec8         0x25 build/00173_USB_PD_BOB_R21/debug/_ext/1171588148/init_irq.o
 .debug_pubnames
                  0x002eed         0x3b build/00173_USB_PD_BOB_R21/debug/_ext/1171588148/init_timer.o
 .debug_pubnames
                  0x002f28         0x1b build/00173_USB_PD_BOB_R21/debug/_ext/1360937237/main.o
 .debug_pubnames
                  0x002f43        0x1fb ..\..\plib\p33SMPS_mcal.X\dist\__P33SMPS_CK__\debug\p33SMPS_mcal.X.a(p33SMPS_hsadc.o)
 .debug_pubnames
                  0x00313e         0xdb ..\..\plib\p33SMPS_mcal.X\dist\__P33SMPS_CK__\debug\p33SMPS_mcal.X.a(p33SMPS_oscillator.o)
 .debug_pubnames
                  0x003219         0xcd ..\..\plib\p33SMPS_mcal.X\dist\__P33SMPS_CK__\debug\p33SMPS_mcal.X.a(p33SMPS_timer.o)
 .debug_pubnames
                  0x0032e6         0x2f ..\..\plib\p33SMPS_mcal.X\dist\__P33SMPS_CK__\debug\p33SMPS_mcal.X.a(p33SMPS_pmd.o)
 .debug_pubnames
                  0x003315         0x98 ..\..\plib\p33SMPS_mcal.X\dist\__P33SMPS_CK__\debug\p33SMPS_mcal.X.a(p33SMPS_pps.o)
 .debug_pubnames
                  0x0033ad         0x95 ..\..\plib\p33SMPS_mcal.X\dist\__P33SMPS_CK__\debug\p33SMPS_mcal.X.a(p33SMPS_irq.o)
 .debug_pubnames
                  0x003442         0x75 ..\..\plib\p33SMPS_mcal.X\dist\__P33SMPS_CK__\debug\p33SMPS_mcal.X.a(p33SMPS_gpio.o)
 .debug_pubnames
                  0x0034b7        0x188 ..\..\plib\p33SMPS_mcal.X\dist\__P33SMPS_CK__\debug\p33SMPS_mcal.X.a(p33SMPS_uart.o)
 .debug_pubnames
                  0x00363f        0x208 ..\..\plib\p33SMPS_mcal.X\dist\__P33SMPS_CK__\debug\p33SMPS_mcal.X.a(p33SMPS_hspwm_c.o)
 .debug_pubnames
                  0x003847         0x4c ..\..\plib\p33SMPS_mcal.X\dist\__P33SMPS_CK__\debug\p33SMPS_mcal.X.a(p33SMPS_crc.o)

.debug_ranges
 *(.debug_ranges)

.debug_aranges    0x000000        0x818
 *(.debug_aranges)
 .debug_aranges
                  0x000000         0x18 build/00173_USB_PD_BOB_R21/debug/_ext/949971983/fdrv_FaultHandler.o
 .debug_aranges
                  0x000018         0x18 build/00173_USB_PD_BOB_R21/debug/_ext/949971983/fdrv_TrapHandler.o
 .debug_aranges
                  0x000030         0x18 build/00173_USB_PD_BOB_R21/debug/_ext/949971983/fdrv_FaultObjects.o
 .debug_aranges
                  0x000048         0x18 build/00173_USB_PD_BOB_R21/debug/_ext/949971983/os_Initialize.o
 .debug_aranges
                  0x000060         0x18 build/00173_USB_PD_BOB_R21/debug/_ext/949971983/os_Scheduler.o
 .debug_aranges
                  0x000078         0x18 build/00173_USB_PD_BOB_R21/debug/_ext/949971983/os_TaskManager.o
 .debug_aranges
                  0x000090         0x18 build/00173_USB_PD_BOB_R21/debug/_ext/687227054/UserStartupCode.o
 .debug_aranges
                  0x0000a8         0x18 build/00173_USB_PD_BOB_R21/debug/_ext/687227054/UserAppManager.o
 .debug_aranges
                  0x0000c0         0x18 build/00173_USB_PD_BOB_R21/debug/_ext/687227054/UserFaultObjects.o
 .debug_aranges
                  0x0000d8         0x18 build/00173_USB_PD_BOB_R21/debug/_ext/687227054/UserTasks.o
 .debug_aranges
                  0x0000f0         0x18 build/00173_USB_PD_BOB_R21/debug/_ext/1515990320/smpsDebugUART.o
 .debug_aranges
                  0x000108         0x18 build/00173_USB_PD_BOB_R21/debug/_ext/1515990320/smpsDebugUART_UserCID.o
 .debug_aranges
                  0x000120         0x18 build/00173_USB_PD_BOB_R21/debug/_ext/92048113/debug_uart.o
 .debug_aranges
                  0x000138         0x18 build/00173_USB_PD_BOB_R21/debug/_ext/2109991248/upd_timer.o
 .debug_aranges
                  0x000150         0x18 build/00173_USB_PD_BOB_R21/debug/_ext/553671219/c4swbb_control.o
 .debug_aranges
                  0x000168         0x18 build/00173_USB_PD_BOB_R21/debug/_ext/553671219/c4swbb_pconfig.o
 .debug_aranges
                  0x000180         0x18 build/00173_USB_PD_BOB_R21/debug/_ext/553671219/cha_iloop.o
 .debug_aranges
                  0x000198         0x18 build/00173_USB_PD_BOB_R21/debug/_ext/553671219/cha_vloop.o
 .debug_aranges
                  0x0001b0         0x18 build/00173_USB_PD_BOB_R21/debug/_ext/553671219/chb_iloop.o
 .debug_aranges
                  0x0001c8         0x18 build/00173_USB_PD_BOB_R21/debug/_ext/553671219/chb_vloop.o
 .debug_aranges
                  0x0001e0         0x18 build/00173_USB_PD_BOB_R21/debug/_ext/553671219/c4swbb_write_pwm.o
 .debug_aranges
                  0x0001f8         0x18 build/00173_USB_PD_BOB_R21/debug/_ext/553671219/cha_iloop_asm.o
 .debug_aranges
                  0x000210         0x18 build/00173_USB_PD_BOB_R21/debug/_ext/553671219/cha_vloop_asm.o
 .debug_aranges
                  0x000228         0x18 build/00173_USB_PD_BOB_R21/debug/_ext/553671219/chb_iloop_asm.o
 .debug_aranges
                  0x000240         0x18 build/00173_USB_PD_BOB_R21/debug/_ext/553671219/chb_vloop_asm.o
 .debug_aranges
                  0x000258         0x18 build/00173_USB_PD_BOB_R21/debug/_ext/1494078692/spi2.o
 .debug_aranges
                  0x000270         0x18 build/00173_USB_PD_BOB_R21/debug/_ext/1666088709/cfg_globals.o
 .debug_aranges
                  0x000288         0x18 build/00173_USB_PD_BOB_R21/debug/_ext/1666088709/debug.o
 .debug_aranges
                  0x0002a0         0x18 build/00173_USB_PD_BOB_R21/debug/_ext/1666088709/generic_timer.o
 .debug_aranges
                  0x0002b8         0x18 build/00173_USB_PD_BOB_R21/debug/_ext/1666088709/int_globals.o
 .debug_aranges
                  0x0002d0         0x18 build/00173_USB_PD_BOB_R21/debug/_ext/1666088709/pd_main.o
 .debug_aranges
                  0x0002e8         0x18 build/00173_USB_PD_BOB_R21/debug/_ext/1666088709/policy_engine.o
 .debug_aranges
                  0x000300         0x18 build/00173_USB_PD_BOB_R21/debug/_ext/1666088709/policy_engine_src.o
 .debug_aranges
                  0x000318         0x18 build/00173_USB_PD_BOB_R21/debug/_ext/1666088709/policy_manager.o
 .debug_aranges
                  0x000330         0x18 build/00173_USB_PD_BOB_R21/debug/_ext/1666088709/protocol_layer.o
 .debug_aranges
                  0x000348         0x18 build/00173_USB_PD_BOB_R21/debug/_ext/1666088709/typeC_control.o
 .debug_aranges
                  0x000360         0x18 build/00173_USB_PD_BOB_R21/debug/_ext/1666088709/upd_hw.o
 .debug_aranges
                  0x000378         0x18 build/00173_USB_PD_BOB_R21/debug/_ext/1666088709/upd_interrupts.o
 .debug_aranges
                  0x000390         0x18 build/00173_USB_PD_BOB_R21/debug/_ext/481295256/hook_functions.o
 .debug_aranges
                  0x0003a8         0x18 build/00173_USB_PD_BOB_R21/debug/_ext/481295256/thermal_power_management.o
 .debug_aranges
                  0x0003c0         0x18 build/00173_USB_PD_BOB_R21/debug/_ext/1838571682/task_Idle.o
 .debug_aranges
                  0x0003d8         0x18 build/00173_USB_PD_BOB_R21/debug/_ext/1838571682/task_PDStack.o
 .debug_aranges
                  0x0003f0         0x18 build/00173_USB_PD_BOB_R21/debug/_ext/1838571682/task_PowerControl.o
 .debug_aranges
                  0x000408         0x18 build/00173_USB_PD_BOB_R21/debug/_ext/1838571682/task_DebugUART.o
 .debug_aranges
                  0x000420         0x18 build/00173_USB_PD_BOB_R21/debug/_ext/1171588148/init_dsp.o
 .debug_aranges
                  0x000438         0x18 build/00173_USB_PD_BOB_R21/debug/_ext/1171588148/init_fosc.o
 .debug_aranges
                  0x000450         0x18 build/00173_USB_PD_BOB_R21/debug/_ext/1171588148/init_gpio.o
 .debug_aranges
                  0x000468         0x18 build/00173_USB_PD_BOB_R21/debug/_ext/1171588148/init_irq.o
 .debug_aranges
                  0x000480         0x18 build/00173_USB_PD_BOB_R21/debug/_ext/1171588148/init_timer.o
 .debug_aranges
                  0x000498         0x18 build/00173_USB_PD_BOB_R21/debug/_ext/1360937237/main.o
 .debug_aranges
                  0x0004b0         0x90 ..\..\plib\p33SMPS_mcal.X\dist\__P33SMPS_CK__\debug\p33SMPS_mcal.X.a(p33SMPS_hsadc.o)
 .debug_aranges
                  0x000540         0x48 ..\..\plib\p33SMPS_mcal.X\dist\__P33SMPS_CK__\debug\p33SMPS_mcal.X.a(p33SMPS_oscillator.o)
 .debug_aranges
                  0x000588         0x58 ..\..\plib\p33SMPS_mcal.X\dist\__P33SMPS_CK__\debug\p33SMPS_mcal.X.a(p33SMPS_timer.o)
 .debug_aranges
                  0x0005e0         0x20 ..\..\plib\p33SMPS_mcal.X\dist\__P33SMPS_CK__\debug\p33SMPS_mcal.X.a(p33SMPS_pmd.o)
 .debug_aranges
                  0x000600         0x48 ..\..\plib\p33SMPS_mcal.X\dist\__P33SMPS_CK__\debug\p33SMPS_mcal.X.a(p33SMPS_pps.o)
 .debug_aranges
                  0x000648         0x38 ..\..\plib\p33SMPS_mcal.X\dist\__P33SMPS_CK__\debug\p33SMPS_mcal.X.a(p33SMPS_irq.o)
 .debug_aranges
                  0x000680         0x38 ..\..\plib\p33SMPS_mcal.X\dist\__P33SMPS_CK__\debug\p33SMPS_mcal.X.a(p33SMPS_gpio.o)
 .debug_aranges
                  0x0006b8         0x98 ..\..\plib\p33SMPS_mcal.X\dist\__P33SMPS_CK__\debug\p33SMPS_mcal.X.a(p33SMPS_uart.o)
 .debug_aranges
                  0x000750         0xa0 ..\..\plib\p33SMPS_mcal.X\dist\__P33SMPS_CK__\debug\p33SMPS_mcal.X.a(p33SMPS_hspwm_c.o)
 .debug_aranges
                  0x0007f0         0x28 ..\..\plib\p33SMPS_mcal.X\dist\__P33SMPS_CK__\debug\p33SMPS_mcal.X.a(p33SMPS_crc.o)
                    0x0000                  WREG0 = 0x0
                    0x0000                  _WREG0 = 0x0
                    0x0002                  WREG1 = 0x2
                    0x0002                  _WREG1 = 0x2
                    0x0004                  WREG2 = 0x4
                    0x0004                  _WREG2 = 0x4
                    0x0006                  WREG3 = 0x6
                    0x0006                  _WREG3 = 0x6
                    0x0008                  WREG4 = 0x8
                    0x0008                  _WREG4 = 0x8
                    0x000a                  WREG5 = 0xa
                    0x000a                  _WREG5 = 0xa
                    0x000c                  WREG6 = 0xc
                    0x000c                  _WREG6 = 0xc
                    0x000e                  WREG7 = 0xe
                    0x000e                  _WREG7 = 0xe
                    0x0010                  WREG8 = 0x10
                    0x0010                  _WREG8 = 0x10
                    0x0012                  WREG9 = 0x12
                    0x0012                  _WREG9 = 0x12
                    0x0014                  WREG10 = 0x14
                    0x0014                  _WREG10 = 0x14
                    0x0016                  WREG11 = 0x16
                    0x0016                  _WREG11 = 0x16
                    0x0018                  WREG12 = 0x18
                    0x0018                  _WREG12 = 0x18
                    0x001a                  WREG13 = 0x1a
                    0x001a                  _WREG13 = 0x1a
                    0x001c                  WREG14 = 0x1c
                    0x001c                  _WREG14 = 0x1c
                    0x001e                  WREG15 = 0x1e
                    0x001e                  _WREG15 = 0x1e
                    0x0020                  SPLIM = 0x20
                    0x0020                  _SPLIM = 0x20
                    0x0022                  ACCAL = 0x22
                    0x0022                  _ACCAL = 0x22
                    0x0024                  ACCAH = 0x24
                    0x0024                  _ACCAH = 0x24
                    0x0026                  ACCAU = 0x26
                    0x0026                  _ACCAU = 0x26
                    0x0028                  ACCBL = 0x28
                    0x0028                  _ACCBL = 0x28
                    0x002a                  ACCBH = 0x2a
                    0x002a                  _ACCBH = 0x2a
                    0x002c                  ACCBU = 0x2c
                    0x002c                  _ACCBU = 0x2c
                    0x002e                  PCL = 0x2e
                    0x002e                  _PCL = 0x2e
                    0x0030                  PCH = 0x30
                    0x0030                  _PCH = 0x30
                    0x0032                  DSRPAG = 0x32
                    0x0032                  _DSRPAG = 0x32
                    0x0032                  _DSRPAGbits = 0x32
                    0x0034                  DSWPAG = 0x34
                    0x0034                  _DSWPAG = 0x34
                    0x0034                  _DSWPAGbits = 0x34
                    0x0036                  RCOUNT = 0x36
                    0x0036                  _RCOUNT = 0x36
                    0x0038                  DCOUNT = 0x38
                    0x0038                  _DCOUNT = 0x38
                    0x003a                  DOSTARTL = 0x3a
                    0x003a                  _DOSTARTL = 0x3a
                    0x003c                  DOSTARTH = 0x3c
                    0x003c                  _DOSTARTH = 0x3c
                    0x003e                  DOENDL = 0x3e
                    0x003e                  _DOENDL = 0x3e
                    0x0040                  DOENDH = 0x40
                    0x0040                  _DOENDH = 0x40
                    0x0042                  SR = 0x42
                    0x0042                  _SR = 0x42
                    0x0042                  _SRbits = 0x42
                    0x0044                  CORCON = 0x44
                    0x0044                  _CORCON = 0x44
                    0x0044                  _CORCONbits = 0x44
                    0x0046                  MODCON = 0x46
                    0x0046                  _MODCON = 0x46
                    0x0046                  _MODCONbits = 0x46
                    0x0048                  XMODSRT = 0x48
                    0x0048                  _XMODSRT = 0x48
                    0x004a                  XMODEND = 0x4a
                    0x004a                  _XMODEND = 0x4a
                    0x004c                  YMODSRT = 0x4c
                    0x004c                  _YMODSRT = 0x4c
                    0x004e                  YMODEND = 0x4e
                    0x004e                  _YMODEND = 0x4e
                    0x0050                  XBREV = 0x50
                    0x0050                  _XBREV = 0x50
                    0x0050                  _XBREVbits = 0x50
                    0x0052                  DISICNT = 0x52
                    0x0052                  _DISICNT = 0x52
                    0x0054                  TBLPAG = 0x54
                    0x0054                  _TBLPAG = 0x54
                    0x0054                  _TBLPAGbits = 0x54
                    0x0056                  YPAG = 0x56
                    0x0056                  _YPAG = 0x56
                    0x0056                  _YPAGbits = 0x56
                    0x0058                  MSTRPR = 0x58
                    0x0058                  _MSTRPR = 0x58
                    0x0058                  _MSTRPRbits = 0x58
                    0x005a                  CTXTSTAT = 0x5a
                    0x005a                  _CTXTSTAT = 0x5a
                    0x005a                  _CTXTSTATbits = 0x5a
                    0x005c                  DMTCON = 0x5c
                    0x005c                  _DMTCON = 0x5c
                    0x005c                  _DMTCONbits = 0x5c
                    0x0060                  DMTPRECLR = 0x60
                    0x0060                  _DMTPRECLR = 0x60
                    0x0060                  _DMTPRECLRbits = 0x60
                    0x0064                  DMTCLR = 0x64
                    0x0064                  _DMTCLR = 0x64
                    0x0064                  _DMTCLRbits = 0x64
                    0x0068                  DMTSTAT = 0x68
                    0x0068                  _DMTSTAT = 0x68
                    0x0068                  _DMTSTATbits = 0x68
                    0x006c                  DMTCNTL = 0x6c
                    0x006c                  _DMTCNTL = 0x6c
                    0x006e                  DMTCNTH = 0x6e
                    0x006e                  _DMTCNTH = 0x6e
                    0x0070                  DMTHOLDREG = 0x70
                    0x0070                  _DMTHOLDREG = 0x70
                    0x0074                  DMTPSCNTL = 0x74
                    0x0074                  _DMTPSCNTL = 0x74
                    0x0076                  DMTPSCNTH = 0x76
                    0x0076                  _DMTPSCNTH = 0x76
                    0x0078                  DMTPSINTVL = 0x78
                    0x0078                  _DMTPSINTVL = 0x78
                    0x007a                  DMTPSINTVH = 0x7a
                    0x007a                  _DMTPSINTVH = 0x7a
                    0x0080                  SENT1CON1 = 0x80
                    0x0080                  _SENT1CON1 = 0x80
                    0x0080                  _SENT1CON1bits = 0x80
                    0x0084                  SENT1CON2 = 0x84
                    0x0084                  _SENT1CON2 = 0x84
                    0x0088                  SENT1CON3 = 0x88
                    0x0088                  _SENT1CON3 = 0x88
                    0x008c                  SENT1STAT = 0x8c
                    0x008c                  _SENT1STAT = 0x8c
                    0x008c                  _SENT1STATbits = 0x8c
                    0x0090                  SENT1SYNC = 0x90
                    0x0090                  _SENT1SYNC = 0x90
                    0x0094                  SENT1DATL = 0x94
                    0x0094                  _SENT1DATL = 0x94
                    0x0094                  _SENT1DATLbits = 0x94
                    0x0096                  SENT1DATH = 0x96
                    0x0096                  _SENT1DATH = 0x96
                    0x0096                  _SENT1DATHbits = 0x96
                    0x0098                  SENT2CON1 = 0x98
                    0x0098                  _SENT2CON1 = 0x98
                    0x0098                  _SENT2CON1bits = 0x98
                    0x009c                  SENT2CON2 = 0x9c
                    0x009c                  _SENT2CON2 = 0x9c
                    0x00a0                  SENT2CON3 = 0xa0
                    0x00a0                  _SENT2CON3 = 0xa0
                    0x00a4                  SENT2STAT = 0xa4
                    0x00a4                  _SENT2STAT = 0xa4
                    0x00a4                  _SENT2STATbits = 0xa4
                    0x00a8                  SENT2SYNC = 0xa8
                    0x00a8                  _SENT2SYNC = 0xa8
                    0x00ac                  SENT2DATL = 0xac
                    0x00ac                  _SENT2DATL = 0xac
                    0x00ac                  _SENT2DATLbits = 0xac
                    0x00ae                  SENT2DATH = 0xae
                    0x00ae                  _SENT2DATH = 0xae
                    0x00ae                  _SENT2DATHbits = 0xae
                    0x00b0                  CRCCON1 = 0xb0
                    0x00b0                  _CRCCON1 = 0xb0
                    0x00b0                  _CRCCON1bits = 0xb0
                    0x00b0                  CRCCONL = 0xb0
                    0x00b0                  _CRCCONL = 0xb0
                    0x00b0                  _CRCCONLbits = 0xb0
                    0x00b2                  CRCCON2 = 0xb2
                    0x00b2                  _CRCCON2 = 0xb2
                    0x00b2                  _CRCCON2bits = 0xb2
                    0x00b2                  CRCCONH = 0xb2
                    0x00b2                  _CRCCONH = 0xb2
                    0x00b2                  _CRCCONHbits = 0xb2
                    0x00b4                  CRCXORL = 0xb4
                    0x00b4                  _CRCXORL = 0xb4
                    0x00b4                  _CRCXORLbits = 0xb4
                    0x00b6                  CRCXORH = 0xb6
                    0x00b6                  _CRCXORH = 0xb6
                    0x00b6                  _CRCXORHbits = 0xb6
                    0x00b8                  CRCDATL = 0xb8
                    0x00b8                  _CRCDATL = 0xb8
                    0x00ba                  CRCDATH = 0xba
                    0x00ba                  _CRCDATH = 0xba
                    0x00bc                  CRCWDATL = 0xbc
                    0x00bc                  _CRCWDATL = 0xbc
                    0x00be                  CRCWDATH = 0xbe
                    0x00be                  _CRCWDATH = 0xbe
                    0x00c0                  CLC1CONL = 0xc0
                    0x00c0                  _CLC1CONL = 0xc0
                    0x00c0                  _CLC1CONLbits = 0xc0
                    0x00c2                  CLC1CONH = 0xc2
                    0x00c2                  _CLC1CONH = 0xc2
                    0x00c2                  _CLC1CONHbits = 0xc2
                    0x00c4                  CLC1SEL = 0xc4
                    0x00c4                  _CLC1SEL = 0xc4
                    0x00c4                  _CLC1SELbits = 0xc4
                    0x00c4                  CLC1SELL = 0xc4
                    0x00c4                  _CLC1SELL = 0xc4
                    0x00c4                  _CLC1SELLbits = 0xc4
                    0x00c8                  CLC1GLSL = 0xc8
                    0x00c8                  _CLC1GLSL = 0xc8
                    0x00c8                  _CLC1GLSLbits = 0xc8
                    0x00ca                  CLC1GLSH = 0xca
                    0x00ca                  _CLC1GLSH = 0xca
                    0x00ca                  _CLC1GLSHbits = 0xca
                    0x00cc                  CLC2CONL = 0xcc
                    0x00cc                  _CLC2CONL = 0xcc
                    0x00cc                  _CLC2CONLbits = 0xcc
                    0x00ce                  CLC2CONH = 0xce
                    0x00ce                  _CLC2CONH = 0xce
                    0x00ce                  _CLC2CONHbits = 0xce
                    0x00d0                  CLC2SEL = 0xd0
                    0x00d0                  _CLC2SEL = 0xd0
                    0x00d0                  _CLC2SELbits = 0xd0
                    0x00d0                  CLC2SELL = 0xd0
                    0x00d0                  _CLC2SELL = 0xd0
                    0x00d0                  _CLC2SELLbits = 0xd0
                    0x00d4                  CLC2GLSL = 0xd4
                    0x00d4                  _CLC2GLSL = 0xd4
                    0x00d4                  _CLC2GLSLbits = 0xd4
                    0x00d6                  CLC2GLSH = 0xd6
                    0x00d6                  _CLC2GLSH = 0xd6
                    0x00d6                  _CLC2GLSHbits = 0xd6
                    0x00d8                  CLC3CONL = 0xd8
                    0x00d8                  _CLC3CONL = 0xd8
                    0x00d8                  _CLC3CONLbits = 0xd8
                    0x00da                  CLC3CONH = 0xda
                    0x00da                  _CLC3CONH = 0xda
                    0x00da                  _CLC3CONHbits = 0xda
                    0x00dc                  CLC3SEL = 0xdc
                    0x00dc                  _CLC3SEL = 0xdc
                    0x00dc                  _CLC3SELbits = 0xdc
                    0x00dc                  CLC3SELL = 0xdc
                    0x00dc                  _CLC3SELL = 0xdc
                    0x00dc                  _CLC3SELLbits = 0xdc
                    0x00e0                  CLC3GLSL = 0xe0
                    0x00e0                  _CLC3GLSL = 0xe0
                    0x00e0                  _CLC3GLSLbits = 0xe0
                    0x00e2                  CLC3GLSH = 0xe2
                    0x00e2                  _CLC3GLSH = 0xe2
                    0x00e2                  _CLC3GLSHbits = 0xe2
                    0x00e4                  CLC4CONL = 0xe4
                    0x00e4                  _CLC4CONL = 0xe4
                    0x00e4                  _CLC4CONLbits = 0xe4
                    0x00e6                  CLC4CONH = 0xe6
                    0x00e6                  _CLC4CONH = 0xe6
                    0x00e6                  _CLC4CONHbits = 0xe6
                    0x00e8                  CLC4SEL = 0xe8
                    0x00e8                  _CLC4SEL = 0xe8
                    0x00e8                  _CLC4SELbits = 0xe8
                    0x00e8                  CLC4SELL = 0xe8
                    0x00e8                  _CLC4SELL = 0xe8
                    0x00e8                  _CLC4SELLbits = 0xe8
                    0x00ec                  CLC4GLSL = 0xec
                    0x00ec                  _CLC4GLSL = 0xec
                    0x00ec                  _CLC4GLSLbits = 0xec
                    0x00ee                  CLC4GLSH = 0xee
                    0x00ee                  _CLC4GLSH = 0xee
                    0x00ee                  _CLC4GLSHbits = 0xee
                    0x00f0                  ECCCONL = 0xf0
                    0x00f0                  _ECCCONL = 0xf0
                    0x00f0                  _ECCCONLbits = 0xf0
                    0x00f2                  ECCCONH = 0xf2
                    0x00f2                  _ECCCONH = 0xf2
                    0x00f2                  _ECCCONHbits = 0xf2
                    0x00f4                  ECCADDRL = 0xf4
                    0x00f4                  _ECCADDRL = 0xf4
                    0x00f6                  ECCADDRH = 0xf6
                    0x00f6                  _ECCADDRH = 0xf6
                    0x00f8                  ECCSTATL = 0xf8
                    0x00f8                  _ECCSTATL = 0xf8
                    0x00f8                  _ECCSTATLbits = 0xf8
                    0x00fa                  ECCSTATH = 0xfa
                    0x00fa                  _ECCSTATH = 0xfa
                    0x00fa                  _ECCSTATHbits = 0xfa
                    0x0100                  T1CON = 0x100
                    0x0100                  _T1CON = 0x100
                    0x0100                  _T1CONbits = 0x100
                    0x0104                  TMR1 = 0x104
                    0x0104                  _TMR1 = 0x104
                    0x0108                  PR1 = 0x108
                    0x0108                  _PR1 = 0x108
                    0x0140                  QEI1CON = 0x140
                    0x0140                  _QEI1CON = 0x140
                    0x0140                  _QEI1CONbits = 0x140
                    0x0144                  QEI1IOC = 0x144
                    0x0144                  _QEI1IOC = 0x144
                    0x0144                  _QEI1IOCbits = 0x144
                    0x0146                  QEI1IOCH = 0x146
                    0x0146                  _QEI1IOCH = 0x146
                    0x0146                  _QEI1IOCHbits = 0x146
                    0x0148                  QEI1STAT = 0x148
                    0x0148                  _QEI1STAT = 0x148
                    0x0148                  _QEI1STATbits = 0x148
                    0x014c                  POS1CNTL = 0x14c
                    0x014c                  _POS1CNTL = 0x14c
                    0x014e                  POS1CNTH = 0x14e
                    0x014e                  _POS1CNTH = 0x14e
                    0x0152                  POS1HLD = 0x152
                    0x0152                  _POS1HLD = 0x152
                    0x0154                  VEL1CNT = 0x154
                    0x0154                  _VEL1CNT = 0x154
                    0x0156                  VEL1CNTH = 0x156
                    0x0156                  _VEL1CNTH = 0x156
                    0x015a                  VEL1HLD = 0x15a
                    0x015a                  _VEL1HLD = 0x15a
                    0x015c                  INT1TMRL = 0x15c
                    0x015c                  _INT1TMRL = 0x15c
                    0x015e                  INT1TMRH = 0x15e
                    0x015e                  _INT1TMRH = 0x15e
                    0x0160                  INT1HLDL = 0x160
                    0x0160                  _INT1HLDL = 0x160
                    0x0162                  INT1HLDH = 0x162
                    0x0162                  _INT1HLDH = 0x162
                    0x0164                  INDX1CNTL = 0x164
                    0x0164                  _INDX1CNTL = 0x164
                    0x0166                  INDX1CNTH = 0x166
                    0x0166                  _INDX1CNTH = 0x166
                    0x016a                  INDX1HLD = 0x16a
                    0x016a                  _INDX1HLD = 0x16a
                    0x016c                  QEI1GECL = 0x16c
                    0x016c                  _QEI1GECL = 0x16c
                    0x016c                  QEI1ICL = 0x16c
                    0x016c                  _QEI1ICL = 0x16c
                    0x016e                  QEI1GECH = 0x16e
                    0x016e                  _QEI1GECH = 0x16e
                    0x016e                  QEI1ICH = 0x16e
                    0x016e                  _QEI1ICH = 0x16e
                    0x0170                  QEI1LECL = 0x170
                    0x0170                  _QEI1LECL = 0x170
                    0x0172                  QEI1LECH = 0x172
                    0x0172                  _QEI1LECH = 0x172
                    0x0174                  QEI2CON = 0x174
                    0x0174                  _QEI2CON = 0x174
                    0x0174                  _QEI2CONbits = 0x174
                    0x0178                  QEI2IOC = 0x178
                    0x0178                  _QEI2IOC = 0x178
                    0x0178                  _QEI2IOCbits = 0x178
                    0x017a                  QEI2IOCH = 0x17a
                    0x017a                  _QEI2IOCH = 0x17a
                    0x017a                  _QEI2IOCHbits = 0x17a
                    0x017c                  QEI2STAT = 0x17c
                    0x017c                  _QEI2STAT = 0x17c
                    0x017c                  _QEI2STATbits = 0x17c
                    0x0180                  POS2CNTL = 0x180
                    0x0180                  _POS2CNTL = 0x180
                    0x0182                  POS2CNTH = 0x182
                    0x0182                  _POS2CNTH = 0x182
                    0x0186                  POS2HLD = 0x186
                    0x0186                  _POS2HLD = 0x186
                    0x0188                  VEL2CNT = 0x188
                    0x0188                  _VEL2CNT = 0x188
                    0x018a                  VEL2CNTH = 0x18a
                    0x018a                  _VEL2CNTH = 0x18a
                    0x018e                  VEL2HLD = 0x18e
                    0x018e                  _VEL2HLD = 0x18e
                    0x0190                  INT2TMRL = 0x190
                    0x0190                  _INT2TMRL = 0x190
                    0x0192                  INT2TMRH = 0x192
                    0x0192                  _INT2TMRH = 0x192
                    0x0194                  INT2HLDL = 0x194
                    0x0194                  _INT2HLDL = 0x194
                    0x0196                  INT2HLDH = 0x196
                    0x0196                  _INT2HLDH = 0x196
                    0x0198                  INDX2CNTL = 0x198
                    0x0198                  _INDX2CNTL = 0x198
                    0x019a                  INDX2CNTH = 0x19a
                    0x019a                  _INDX2CNTH = 0x19a
                    0x019e                  INDX2HLD = 0x19e
                    0x019e                  _INDX2HLD = 0x19e
                    0x01a0                  QEI2GECL = 0x1a0
                    0x01a0                  _QEI2GECL = 0x1a0
                    0x01a0                  QEI2ICL = 0x1a0
                    0x01a0                  _QEI2ICL = 0x1a0
                    0x01a2                  QEI2GECH = 0x1a2
                    0x01a2                  _QEI2GECH = 0x1a2
                    0x01a2                  QEI2ICH = 0x1a2
                    0x01a2                  _QEI2ICH = 0x1a2
                    0x01a4                  QEI2LECL = 0x1a4
                    0x01a4                  _QEI2LECL = 0x1a4
                    0x01a6                  QEI2LECH = 0x1a6
                    0x01a6                  _QEI2LECH = 0x1a6
                    0x0200                  I2C1CON1 = 0x200
                    0x0200                  _I2C1CON1 = 0x200
                    0x0200                  _I2C1CON1bits = 0x200
                    0x0200                  I2C1CONL = 0x200
                    0x0200                  _I2C1CONL = 0x200
                    0x0200                  _I2C1CONLbits = 0x200
                    0x0202                  I2C1CON2 = 0x202
                    0x0202                  _I2C1CON2 = 0x202
                    0x0202                  _I2C1CON2bits = 0x202
                    0x0202                  I2C1CONH = 0x202
                    0x0202                  _I2C1CONH = 0x202
                    0x0202                  _I2C1CONHbits = 0x202
                    0x0204                  I2C1STAT = 0x204
                    0x0204                  _I2C1STAT = 0x204
                    0x0204                  _I2C1STATbits = 0x204
                    0x0208                  I2C1ADD = 0x208
                    0x0208                  _I2C1ADD = 0x208
                    0x0208                  _I2C1ADDbits = 0x208
                    0x020c                  I2C1MSK = 0x20c
                    0x020c                  _I2C1MSK = 0x20c
                    0x020c                  _I2C1MSKbits = 0x20c
                    0x0210                  I2C1BRG = 0x210
                    0x0210                  _I2C1BRG = 0x210
                    0x0214                  I2C1TRN = 0x214
                    0x0214                  _I2C1TRN = 0x214
                    0x0214                  _I2C1TRNbits = 0x214
                    0x0218                  I2C1RCV = 0x218
                    0x0218                  _I2C1RCV = 0x218
                    0x0218                  _I2C1RCVbits = 0x218
                    0x021c                  I2C2CON1 = 0x21c
                    0x021c                  _I2C2CON1 = 0x21c
                    0x021c                  _I2C2CON1bits = 0x21c
                    0x021c                  I2C2CONL = 0x21c
                    0x021c                  _I2C2CONL = 0x21c
                    0x021c                  _I2C2CONLbits = 0x21c
                    0x021e                  I2C2CON2 = 0x21e
                    0x021e                  _I2C2CON2 = 0x21e
                    0x021e                  _I2C2CON2bits = 0x21e
                    0x021e                  I2C2CONH = 0x21e
                    0x021e                  _I2C2CONH = 0x21e
                    0x021e                  _I2C2CONHbits = 0x21e
                    0x0220                  I2C2STAT = 0x220
                    0x0220                  _I2C2STAT = 0x220
                    0x0220                  _I2C2STATbits = 0x220
                    0x0224                  I2C2ADD = 0x224
                    0x0224                  _I2C2ADD = 0x224
                    0x0224                  _I2C2ADDbits = 0x224
                    0x0228                  I2C2MSK = 0x228
                    0x0228                  _I2C2MSK = 0x228
                    0x0228                  _I2C2MSKbits = 0x228
                    0x022c                  I2C2BRG = 0x22c
                    0x022c                  _I2C2BRG = 0x22c
                    0x0230                  I2C2TRN = 0x230
                    0x0230                  _I2C2TRN = 0x230
                    0x0230                  _I2C2TRNbits = 0x230
                    0x0234                  I2C2RCV = 0x234
                    0x0234                  _I2C2RCV = 0x234
                    0x0234                  _I2C2RCVbits = 0x234
                    0x0238                  U1MODE = 0x238
                    0x0238                  _U1MODE = 0x238
                    0x0238                  _U1MODEbits = 0x238
                    0x023a                  U1MODEH = 0x23a
                    0x023a                  _U1MODEH = 0x23a
                    0x023a                  _U1MODEHbits = 0x23a
                    0x023c                  U1STA = 0x23c
                    0x023c                  _U1STA = 0x23c
                    0x023c                  _U1STAbits = 0x23c
                    0x023e                  U1STAH = 0x23e
                    0x023e                  _U1STAH = 0x23e
                    0x023e                  _U1STAHbits = 0x23e
                    0x0240                  U1BRG = 0x240
                    0x0240                  _U1BRG = 0x240
                    0x0240                  _U1BRGbits = 0x240
                    0x0242                  U1BRGH = 0x242
                    0x0242                  _U1BRGH = 0x242
                    0x0242                  _U1BRGHbits = 0x242
                    0x0244                  U1RXREG = 0x244
                    0x0244                  _U1RXREG = 0x244
                    0x0244                  _U1RXREGbits = 0x244
                    0x0248                  U1TXREG = 0x248
                    0x0248                  _U1TXREG = 0x248
                    0x0248                  _U1TXREGbits = 0x248
                    0x024c                  U1P1 = 0x24c
                    0x024c                  _U1P1 = 0x24c
                    0x024c                  _U1P1bits = 0x24c
                    0x024e                  U1P2 = 0x24e
                    0x024e                  _U1P2 = 0x24e
                    0x024e                  _U1P2bits = 0x24e
                    0x0250                  U1P3 = 0x250
                    0x0250                  _U1P3 = 0x250
                    0x0250                  _U1P3bits = 0x250
                    0x0252                  U1P3H = 0x252
                    0x0252                  _U1P3H = 0x252
                    0x0252                  _U1P3Hbits = 0x252
                    0x0254                  U1TXCHK = 0x254
                    0x0254                  _U1TXCHK = 0x254
                    0x0254                  _U1TXCHKbits = 0x254
                    0x0256                  U1RXCHK = 0x256
                    0x0256                  _U1RXCHK = 0x256
                    0x0256                  _U1RXCHKbits = 0x256
                    0x0258                  U1SCCON = 0x258
                    0x0258                  _U1SCCON = 0x258
                    0x0258                  _U1SCCONbits = 0x258
                    0x025a                  U1SCINT = 0x25a
                    0x025a                  _U1SCINT = 0x25a
                    0x025a                  _U1SCINTbits = 0x25a
                    0x025c                  U1INT = 0x25c
                    0x025c                  _U1INT = 0x25c
                    0x025c                  _U1INTbits = 0x25c
                    0x0260                  U2MODE = 0x260
                    0x0260                  _U2MODE = 0x260
                    0x0260                  _U2MODEbits = 0x260
                    0x0262                  U2MODEH = 0x262
                    0x0262                  _U2MODEH = 0x262
                    0x0262                  _U2MODEHbits = 0x262
                    0x0264                  U2STA = 0x264
                    0x0264                  _U2STA = 0x264
                    0x0264                  _U2STAbits = 0x264
                    0x0266                  U2STAH = 0x266
                    0x0266                  _U2STAH = 0x266
                    0x0266                  _U2STAHbits = 0x266
                    0x0268                  U2BRG = 0x268
                    0x0268                  _U2BRG = 0x268
                    0x0268                  _U2BRGbits = 0x268
                    0x026a                  U2BRGH = 0x26a
                    0x026a                  _U2BRGH = 0x26a
                    0x026a                  _U2BRGHbits = 0x26a
                    0x026c                  U2RXREG = 0x26c
                    0x026c                  _U2RXREG = 0x26c
                    0x026c                  _U2RXREGbits = 0x26c
                    0x0270                  U2TXREG = 0x270
                    0x0270                  _U2TXREG = 0x270
                    0x0270                  _U2TXREGbits = 0x270
                    0x0274                  U2P1 = 0x274
                    0x0274                  _U2P1 = 0x274
                    0x0274                  _U2P1bits = 0x274
                    0x0276                  U2P2 = 0x276
                    0x0276                  _U2P2 = 0x276
                    0x0276                  _U2P2bits = 0x276
                    0x0278                  U2P3 = 0x278
                    0x0278                  _U2P3 = 0x278
                    0x0278                  _U2P3bits = 0x278
                    0x027a                  U2P3H = 0x27a
                    0x027a                  _U2P3H = 0x27a
                    0x027a                  _U2P3Hbits = 0x27a
                    0x027c                  U2TXCHK = 0x27c
                    0x027c                  _U2TXCHK = 0x27c
                    0x027c                  _U2TXCHKbits = 0x27c
                    0x027e                  U2RXCHK = 0x27e
                    0x027e                  _U2RXCHK = 0x27e
                    0x027e                  _U2RXCHKbits = 0x27e
                    0x0280                  U2SCCON = 0x280
                    0x0280                  _U2SCCON = 0x280
                    0x0280                  _U2SCCONbits = 0x280
                    0x0282                  U2SCINT = 0x282
                    0x0282                  _U2SCINT = 0x282
                    0x0282                  _U2SCINTbits = 0x282
                    0x0284                  U2INT = 0x284
                    0x0284                  _U2INT = 0x284
                    0x0284                  _U2INTbits = 0x284
                    0x02ac                  SPI1CON1 = 0x2ac
                    0x02ac                  _SPI1CON1 = 0x2ac
                    0x02ac                  _SPI1CON1bits = 0x2ac
                    0x02ac                  SPI1CON1L = 0x2ac
                    0x02ac                  _SPI1CON1L = 0x2ac
                    0x02ac                  _SPI1CON1Lbits = 0x2ac
                    0x02ae                  SPI1CON1H = 0x2ae
                    0x02ae                  _SPI1CON1H = 0x2ae
                    0x02ae                  _SPI1CON1Hbits = 0x2ae
                    0x02ae                  SPI1CON2 = 0x2ae
                    0x02ae                  _SPI1CON2 = 0x2ae
                    0x02ae                  _SPI1CON2bits = 0x2ae
                    0x02b0                  SPI1CON2L = 0x2b0
                    0x02b0                  _SPI1CON2L = 0x2b0
                    0x02b0                  _SPI1CON2Lbits = 0x2b0
                    0x02b0                  SPI1CON3 = 0x2b0
                    0x02b0                  _SPI1CON3 = 0x2b0
                    0x02b0                  _SPI1CON3bits = 0x2b0
                    0x02b2                  SPI1CON2H = 0x2b2
                    0x02b2                  _SPI1CON2H = 0x2b2
                    0x02b2                  SPI1CON4 = 0x2b2
                    0x02b2                  _SPI1CON4 = 0x2b2
                    0x02b4                  SPI1STATL = 0x2b4
                    0x02b4                  _SPI1STATL = 0x2b4
                    0x02b4                  _SPI1STATLbits = 0x2b4
                    0x02b6                  SPI1STATH = 0x2b6
                    0x02b6                  _SPI1STATH = 0x2b6
                    0x02b6                  _SPI1STATHbits = 0x2b6
                    0x02b8                  SPI1BUFL = 0x2b8
                    0x02b8                  _SPI1BUFL = 0x2b8
                    0x02b8                  _SPI1BUFLbits = 0x2b8
                    0x02ba                  SPI1BUFH = 0x2ba
                    0x02ba                  _SPI1BUFH = 0x2ba
                    0x02ba                  _SPI1BUFHbits = 0x2ba
                    0x02bc                  SPI1BRGL = 0x2bc
                    0x02bc                  _SPI1BRGL = 0x2bc
                    0x02bc                  _SPI1BRGLbits = 0x2bc
                    0x02be                  SPI1BRGH = 0x2be
                    0x02be                  _SPI1BRGH = 0x2be
                    0x02c0                  SPI1IMSK1 = 0x2c0
                    0x02c0                  _SPI1IMSK1 = 0x2c0
                    0x02c0                  _SPI1IMSK1bits = 0x2c0
                    0x02c0                  SPI1IMSKL = 0x2c0
                    0x02c0                  _SPI1IMSKL = 0x2c0
                    0x02c0                  _SPI1IMSKLbits = 0x2c0
                    0x02c2                  SPI1IMSK2 = 0x2c2
                    0x02c2                  _SPI1IMSK2 = 0x2c2
                    0x02c2                  _SPI1IMSK2bits = 0x2c2
                    0x02c2                  SPI1IMSKH = 0x2c2
                    0x02c2                  _SPI1IMSKH = 0x2c2
                    0x02c2                  _SPI1IMSKHbits = 0x2c2
                    0x02c4                  SPI1URDTL = 0x2c4
                    0x02c4                  _SPI1URDTL = 0x2c4
                    0x02c4                  _SPI1URDTLbits = 0x2c4
                    0x02c6                  SPI1URDTH = 0x2c6
                    0x02c6                  _SPI1URDTH = 0x2c6
                    0x02c6                  _SPI1URDTHbits = 0x2c6
                    0x02c8                  SPI2CON1 = 0x2c8
                    0x02c8                  _SPI2CON1 = 0x2c8
                    0x02c8                  _SPI2CON1bits = 0x2c8
                    0x02c8                  SPI2CON1L = 0x2c8
                    0x02c8                  _SPI2CON1L = 0x2c8
                    0x02c8                  _SPI2CON1Lbits = 0x2c8
                    0x02ca                  SPI2CON1H = 0x2ca
                    0x02ca                  _SPI2CON1H = 0x2ca
                    0x02ca                  _SPI2CON1Hbits = 0x2ca
                    0x02ca                  SPI2CON2 = 0x2ca
                    0x02ca                  _SPI2CON2 = 0x2ca
                    0x02ca                  _SPI2CON2bits = 0x2ca
                    0x02cc                  SPI2CON2L = 0x2cc
                    0x02cc                  _SPI2CON2L = 0x2cc
                    0x02cc                  _SPI2CON2Lbits = 0x2cc
                    0x02cc                  SPI2CON3 = 0x2cc
                    0x02cc                  _SPI2CON3 = 0x2cc
                    0x02cc                  _SPI2CON3bits = 0x2cc
                    0x02ce                  SPI2CON2H = 0x2ce
                    0x02ce                  _SPI2CON2H = 0x2ce
                    0x02ce                  SPI2CON4 = 0x2ce
                    0x02ce                  _SPI2CON4 = 0x2ce
                    0x02d0                  SPI2STATL = 0x2d0
                    0x02d0                  _SPI2STATL = 0x2d0
                    0x02d0                  _SPI2STATLbits = 0x2d0
                    0x02d2                  SPI2STATH = 0x2d2
                    0x02d2                  _SPI2STATH = 0x2d2
                    0x02d2                  _SPI2STATHbits = 0x2d2
                    0x02d4                  SPI2BUFL = 0x2d4
                    0x02d4                  _SPI2BUFL = 0x2d4
                    0x02d4                  _SPI2BUFLbits = 0x2d4
                    0x02d6                  SPI2BUFH = 0x2d6
                    0x02d6                  _SPI2BUFH = 0x2d6
                    0x02d6                  _SPI2BUFHbits = 0x2d6
                    0x02d8                  SPI2BRGL = 0x2d8
                    0x02d8                  _SPI2BRGL = 0x2d8
                    0x02d8                  _SPI2BRGLbits = 0x2d8
                    0x02da                  SPI2BRGH = 0x2da
                    0x02da                  _SPI2BRGH = 0x2da
                    0x02dc                  SPI2IMSK1 = 0x2dc
                    0x02dc                  _SPI2IMSK1 = 0x2dc
                    0x02dc                  _SPI2IMSK1bits = 0x2dc
                    0x02dc                  SPI2IMSKL = 0x2dc
                    0x02dc                  _SPI2IMSKL = 0x2dc
                    0x02dc                  _SPI2IMSKLbits = 0x2dc
                    0x02de                  SPI2IMSK2 = 0x2de
                    0x02de                  _SPI2IMSK2 = 0x2de
                    0x02de                  _SPI2IMSK2bits = 0x2de
                    0x02de                  SPI2IMSKH = 0x2de
                    0x02de                  _SPI2IMSKH = 0x2de
                    0x02de                  _SPI2IMSKHbits = 0x2de
                    0x02e0                  SPI2URDTL = 0x2e0
                    0x02e0                  _SPI2URDTL = 0x2e0
                    0x02e0                  _SPI2URDTLbits = 0x2e0
                    0x02e2                  SPI2URDTH = 0x2e2
                    0x02e2                  _SPI2URDTH = 0x2e2
                    0x02e2                  _SPI2URDTHbits = 0x2e2
                    0x02e4                  SPI3CON1 = 0x2e4
                    0x02e4                  _SPI3CON1 = 0x2e4
                    0x02e4                  _SPI3CON1bits = 0x2e4
                    0x02e4                  SPI3CON1L = 0x2e4
                    0x02e4                  _SPI3CON1L = 0x2e4
                    0x02e4                  _SPI3CON1Lbits = 0x2e4
                    0x02e6                  SPI3CON1H = 0x2e6
                    0x02e6                  _SPI3CON1H = 0x2e6
                    0x02e6                  _SPI3CON1Hbits = 0x2e6
                    0x02e6                  SPI3CON2 = 0x2e6
                    0x02e6                  _SPI3CON2 = 0x2e6
                    0x02e6                  _SPI3CON2bits = 0x2e6
                    0x02e8                  SPI3CON2L = 0x2e8
                    0x02e8                  _SPI3CON2L = 0x2e8
                    0x02e8                  _SPI3CON2Lbits = 0x2e8
                    0x02e8                  SPI3CON3 = 0x2e8
                    0x02e8                  _SPI3CON3 = 0x2e8
                    0x02e8                  _SPI3CON3bits = 0x2e8
                    0x02ea                  SPI3CON2H = 0x2ea
                    0x02ea                  _SPI3CON2H = 0x2ea
                    0x02ea                  SPI3CON4 = 0x2ea
                    0x02ea                  _SPI3CON4 = 0x2ea
                    0x02ec                  SPI3STATL = 0x2ec
                    0x02ec                  _SPI3STATL = 0x2ec
                    0x02ec                  _SPI3STATLbits = 0x2ec
                    0x02ee                  SPI3STATH = 0x2ee
                    0x02ee                  _SPI3STATH = 0x2ee
                    0x02ee                  _SPI3STATHbits = 0x2ee
                    0x02f0                  SPI3BUFL = 0x2f0
                    0x02f0                  _SPI3BUFL = 0x2f0
                    0x02f0                  _SPI3BUFLbits = 0x2f0
                    0x02f2                  SPI3BUFH = 0x2f2
                    0x02f2                  _SPI3BUFH = 0x2f2
                    0x02f2                  _SPI3BUFHbits = 0x2f2
                    0x02f4                  SPI3BRGL = 0x2f4
                    0x02f4                  _SPI3BRGL = 0x2f4
                    0x02f4                  _SPI3BRGLbits = 0x2f4
                    0x02f6                  SPI3BRGH = 0x2f6
                    0x02f6                  _SPI3BRGH = 0x2f6
                    0x02f8                  SPI3IMSK1 = 0x2f8
                    0x02f8                  _SPI3IMSK1 = 0x2f8
                    0x02f8                  _SPI3IMSK1bits = 0x2f8
                    0x02f8                  SPI3IMSKL = 0x2f8
                    0x02f8                  _SPI3IMSKL = 0x2f8
                    0x02f8                  _SPI3IMSKLbits = 0x2f8
                    0x02fa                  SPI3IMSK2 = 0x2fa
                    0x02fa                  _SPI3IMSK2 = 0x2fa
                    0x02fa                  _SPI3IMSK2bits = 0x2fa
                    0x02fa                  SPI3IMSKH = 0x2fa
                    0x02fa                  _SPI3IMSKH = 0x2fa
                    0x02fa                  _SPI3IMSKHbits = 0x2fa
                    0x02fc                  SPI3URDTL = 0x2fc
                    0x02fc                  _SPI3URDTL = 0x2fc
                    0x02fc                  _SPI3URDTLbits = 0x2fc
                    0x02fe                  SPI3URDTH = 0x2fe
                    0x02fe                  _SPI3URDTH = 0x2fe
                    0x02fe                  _SPI3URDTHbits = 0x2fe
                    0x0300                  PCLKCON = 0x300
                    0x0300                  _PCLKCON = 0x300
                    0x0300                  _PCLKCONbits = 0x300
                    0x0302                  FSCL = 0x302
                    0x0302                  _FSCL = 0x302
                    0x0304                  FSMINPER = 0x304
                    0x0304                  _FSMINPER = 0x304
                    0x0306                  MPHASE = 0x306
                    0x0306                  _MPHASE = 0x306
                    0x0308                  MDC = 0x308
                    0x0308                  _MDC = 0x308
                    0x030a                  MPER = 0x30a
                    0x030a                  _MPER = 0x30a
                    0x030c                  LFSR = 0x30c
                    0x030c                  _LFSR = 0x30c
                    0x030c                  _LFSRbits = 0x30c
                    0x030e                  CMBTRIGL = 0x30e
                    0x030e                  _CMBTRIGL = 0x30e
                    0x030e                  _CMBTRIGLbits = 0x30e
                    0x0310                  CMBTRIGH = 0x310
                    0x0310                  _CMBTRIGH = 0x310
                    0x0310                  _CMBTRIGHbits = 0x310
                    0x0312                  LOGCONA = 0x312
                    0x0312                  _LOGCONA = 0x312
                    0x0312                  _LOGCONAbits = 0x312
                    0x0314                  LOGCONB = 0x314
                    0x0314                  _LOGCONB = 0x314
                    0x0314                  _LOGCONBbits = 0x314
                    0x0316                  LOGCONC = 0x316
                    0x0316                  _LOGCONC = 0x316
                    0x0316                  _LOGCONCbits = 0x316
                    0x0318                  LOGCOND = 0x318
                    0x0318                  _LOGCOND = 0x318
                    0x0318                  _LOGCONDbits = 0x318
                    0x031a                  LOGCONE = 0x31a
                    0x031a                  _LOGCONE = 0x31a
                    0x031a                  _LOGCONEbits = 0x31a
                    0x031c                  LOGCONF = 0x31c
                    0x031c                  _LOGCONF = 0x31c
                    0x031c                  _LOGCONFbits = 0x31c
                    0x031e                  PWMEVTA = 0x31e
                    0x031e                  _PWMEVTA = 0x31e
                    0x031e                  _PWMEVTAbits = 0x31e
                    0x0320                  PWMEVTB = 0x320
                    0x0320                  _PWMEVTB = 0x320
                    0x0320                  _PWMEVTBbits = 0x320
                    0x0322                  PWMEVTC = 0x322
                    0x0322                  _PWMEVTC = 0x322
                    0x0322                  _PWMEVTCbits = 0x322
                    0x0324                  PWMEVTD = 0x324
                    0x0324                  _PWMEVTD = 0x324
                    0x0324                  _PWMEVTDbits = 0x324
                    0x0326                  PWMEVTE = 0x326
                    0x0326                  _PWMEVTE = 0x326
                    0x0326                  _PWMEVTEbits = 0x326
                    0x0328                  PWMEVTF = 0x328
                    0x0328                  _PWMEVTF = 0x328
                    0x0328                  _PWMEVTFbits = 0x328
                    0x032a                  PG1CONL = 0x32a
                    0x032a                  _PG1CONL = 0x32a
                    0x032a                  _PG1CONLbits = 0x32a
                    0x032c                  PG1CONH = 0x32c
                    0x032c                  _PG1CONH = 0x32c
                    0x032c                  _PG1CONHbits = 0x32c
                    0x032e                  PG1STAT = 0x32e
                    0x032e                  _PG1STAT = 0x32e
                    0x032e                  _PG1STATbits = 0x32e
                    0x0330                  PG1IOCONL = 0x330
                    0x0330                  _PG1IOCONL = 0x330
                    0x0330                  _PG1IOCONLbits = 0x330
                    0x0332                  PG1IOCONH = 0x332
                    0x0332                  _PG1IOCONH = 0x332
                    0x0332                  _PG1IOCONHbits = 0x332
                    0x0334                  PG1EVTL = 0x334
                    0x0334                  _PG1EVTL = 0x334
                    0x0334                  _PG1EVTLbits = 0x334
                    0x0336                  PG1EVTH = 0x336
                    0x0336                  _PG1EVTH = 0x336
                    0x0336                  _PG1EVTHbits = 0x336
                    0x0338                  PG1FPCIL = 0x338
                    0x0338                  _PG1FPCIL = 0x338
                    0x0338                  _PG1FPCILbits = 0x338
                    0x033a                  PG1FPCIH = 0x33a
                    0x033a                  _PG1FPCIH = 0x33a
                    0x033a                  _PG1FPCIHbits = 0x33a
                    0x033c                  PG1CLPCIL = 0x33c
                    0x033c                  _PG1CLPCIL = 0x33c
                    0x033c                  _PG1CLPCILbits = 0x33c
                    0x033e                  PG1CLPCIH = 0x33e
                    0x033e                  _PG1CLPCIH = 0x33e
                    0x033e                  _PG1CLPCIHbits = 0x33e
                    0x0340                  PG1FFPCIL = 0x340
                    0x0340                  _PG1FFPCIL = 0x340
                    0x0340                  _PG1FFPCILbits = 0x340
                    0x0342                  PG1FFPCIH = 0x342
                    0x0342                  _PG1FFPCIH = 0x342
                    0x0342                  _PG1FFPCIHbits = 0x342
                    0x0344                  PG1SPCIL = 0x344
                    0x0344                  _PG1SPCIL = 0x344
                    0x0344                  _PG1SPCILbits = 0x344
                    0x0346                  PG1SPCIH = 0x346
                    0x0346                  _PG1SPCIH = 0x346
                    0x0346                  _PG1SPCIHbits = 0x346
                    0x0348                  PG1LEBL = 0x348
                    0x0348                  _PG1LEBL = 0x348
                    0x034a                  PG1LEBH = 0x34a
                    0x034a                  _PG1LEBH = 0x34a
                    0x034a                  _PG1LEBHbits = 0x34a
                    0x034c                  PG1PHASE = 0x34c
                    0x034c                  _PG1PHASE = 0x34c
                    0x034e                  PG1DC = 0x34e
                    0x034e                  _PG1DC = 0x34e
                    0x0350                  PG1DCA = 0x350
                    0x0350                  _PG1DCA = 0x350
                    0x0350                  _PG1DCAbits = 0x350
                    0x0352                  PG1PER = 0x352
                    0x0352                  _PG1PER = 0x352
                    0x0354                  PG1TRIGA = 0x354
                    0x0354                  _PG1TRIGA = 0x354
                    0x0356                  PG1TRIGB = 0x356
                    0x0356                  _PG1TRIGB = 0x356
                    0x0358                  PG1TRIGC = 0x358
                    0x0358                  _PG1TRIGC = 0x358
                    0x035a                  PG1DTL = 0x35a
                    0x035a                  _PG1DTL = 0x35a
                    0x035a                  _PG1DTLbits = 0x35a
                    0x035c                  PG1DTH = 0x35c
                    0x035c                  _PG1DTH = 0x35c
                    0x035c                  _PG1DTHbits = 0x35c
                    0x035e                  PG1CAP = 0x35e
                    0x035e                  _PG1CAP = 0x35e
                    0x0360                  PG2CONL = 0x360
                    0x0360                  _PG2CONL = 0x360
                    0x0360                  _PG2CONLbits = 0x360
                    0x0362                  PG2CONH = 0x362
                    0x0362                  _PG2CONH = 0x362
                    0x0362                  _PG2CONHbits = 0x362
                    0x0364                  PG2STAT = 0x364
                    0x0364                  _PG2STAT = 0x364
                    0x0364                  _PG2STATbits = 0x364
                    0x0366                  PG2IOCONL = 0x366
                    0x0366                  _PG2IOCONL = 0x366
                    0x0366                  _PG2IOCONLbits = 0x366
                    0x0368                  PG2IOCONH = 0x368
                    0x0368                  _PG2IOCONH = 0x368
                    0x0368                  _PG2IOCONHbits = 0x368
                    0x036a                  PG2EVTL = 0x36a
                    0x036a                  _PG2EVTL = 0x36a
                    0x036a                  _PG2EVTLbits = 0x36a
                    0x036c                  PG2EVTH = 0x36c
                    0x036c                  _PG2EVTH = 0x36c
                    0x036c                  _PG2EVTHbits = 0x36c
                    0x036e                  PG2FPCIL = 0x36e
                    0x036e                  _PG2FPCIL = 0x36e
                    0x036e                  _PG2FPCILbits = 0x36e
                    0x0370                  PG2FPCIH = 0x370
                    0x0370                  _PG2FPCIH = 0x370
                    0x0370                  _PG2FPCIHbits = 0x370
                    0x0372                  PG2CLPCIL = 0x372
                    0x0372                  _PG2CLPCIL = 0x372
                    0x0372                  _PG2CLPCILbits = 0x372
                    0x0374                  PG2CLPCIH = 0x374
                    0x0374                  _PG2CLPCIH = 0x374
                    0x0374                  _PG2CLPCIHbits = 0x374
                    0x0376                  PG2FFPCIL = 0x376
                    0x0376                  _PG2FFPCIL = 0x376
                    0x0376                  _PG2FFPCILbits = 0x376
                    0x0378                  PG2FFPCIH = 0x378
                    0x0378                  _PG2FFPCIH = 0x378
                    0x0378                  _PG2FFPCIHbits = 0x378
                    0x037a                  PG2SPCIL = 0x37a
                    0x037a                  _PG2SPCIL = 0x37a
                    0x037a                  _PG2SPCILbits = 0x37a
                    0x037c                  PG2SPCIH = 0x37c
                    0x037c                  _PG2SPCIH = 0x37c
                    0x037c                  _PG2SPCIHbits = 0x37c
                    0x037e                  PG2LEBL = 0x37e
                    0x037e                  _PG2LEBL = 0x37e
                    0x0380                  PG2LEBH = 0x380
                    0x0380                  _PG2LEBH = 0x380
                    0x0380                  _PG2LEBHbits = 0x380
                    0x0382                  PG2PHASE = 0x382
                    0x0382                  _PG2PHASE = 0x382
                    0x0384                  PG2DC = 0x384
                    0x0384                  _PG2DC = 0x384
                    0x0386                  PG2DCA = 0x386
                    0x0386                  _PG2DCA = 0x386
                    0x0386                  _PG2DCAbits = 0x386
                    0x0388                  PG2PER = 0x388
                    0x0388                  _PG2PER = 0x388
                    0x038a                  PG2TRIGA = 0x38a
                    0x038a                  _PG2TRIGA = 0x38a
                    0x038c                  PG2TRIGB = 0x38c
                    0x038c                  _PG2TRIGB = 0x38c
                    0x038e                  PG2TRIGC = 0x38e
                    0x038e                  _PG2TRIGC = 0x38e
                    0x0390                  PG2DTL = 0x390
                    0x0390                  _PG2DTL = 0x390
                    0x0390                  _PG2DTLbits = 0x390
                    0x0392                  PG2DTH = 0x392
                    0x0392                  _PG2DTH = 0x392
                    0x0392                  _PG2DTHbits = 0x392
                    0x0394                  PG2CAP = 0x394
                    0x0394                  _PG2CAP = 0x394
                    0x0396                  PG3CONL = 0x396
                    0x0396                  _PG3CONL = 0x396
                    0x0396                  _PG3CONLbits = 0x396
                    0x0398                  PG3CONH = 0x398
                    0x0398                  _PG3CONH = 0x398
                    0x0398                  _PG3CONHbits = 0x398
                    0x039a                  PG3STAT = 0x39a
                    0x039a                  _PG3STAT = 0x39a
                    0x039a                  _PG3STATbits = 0x39a
                    0x039c                  PG3IOCONL = 0x39c
                    0x039c                  _PG3IOCONL = 0x39c
                    0x039c                  _PG3IOCONLbits = 0x39c
                    0x039e                  PG3IOCONH = 0x39e
                    0x039e                  _PG3IOCONH = 0x39e
                    0x039e                  _PG3IOCONHbits = 0x39e
                    0x03a0                  PG3EVTL = 0x3a0
                    0x03a0                  _PG3EVTL = 0x3a0
                    0x03a0                  _PG3EVTLbits = 0x3a0
                    0x03a2                  PG3EVTH = 0x3a2
                    0x03a2                  _PG3EVTH = 0x3a2
                    0x03a2                  _PG3EVTHbits = 0x3a2
                    0x03a4                  PG3FPCIL = 0x3a4
                    0x03a4                  _PG3FPCIL = 0x3a4
                    0x03a4                  _PG3FPCILbits = 0x3a4
                    0x03a6                  PG3FPCIH = 0x3a6
                    0x03a6                  _PG3FPCIH = 0x3a6
                    0x03a6                  _PG3FPCIHbits = 0x3a6
                    0x03a8                  PG3CLPCIL = 0x3a8
                    0x03a8                  _PG3CLPCIL = 0x3a8
                    0x03a8                  _PG3CLPCILbits = 0x3a8
                    0x03aa                  PG3CLPCIH = 0x3aa
                    0x03aa                  _PG3CLPCIH = 0x3aa
                    0x03aa                  _PG3CLPCIHbits = 0x3aa
                    0x03ac                  PG3FFPCIL = 0x3ac
                    0x03ac                  _PG3FFPCIL = 0x3ac
                    0x03ac                  _PG3FFPCILbits = 0x3ac
                    0x03ae                  PG3FFPCIH = 0x3ae
                    0x03ae                  _PG3FFPCIH = 0x3ae
                    0x03ae                  _PG3FFPCIHbits = 0x3ae
                    0x03b0                  PG3SPCIL = 0x3b0
                    0x03b0                  _PG3SPCIL = 0x3b0
                    0x03b0                  _PG3SPCILbits = 0x3b0
                    0x03b2                  PG3SPCIH = 0x3b2
                    0x03b2                  _PG3SPCIH = 0x3b2
                    0x03b2                  _PG3SPCIHbits = 0x3b2
                    0x03b4                  PG3LEBL = 0x3b4
                    0x03b4                  _PG3LEBL = 0x3b4
                    0x03b6                  PG3LEBH = 0x3b6
                    0x03b6                  _PG3LEBH = 0x3b6
                    0x03b6                  _PG3LEBHbits = 0x3b6
                    0x03b8                  PG3PHASE = 0x3b8
                    0x03b8                  _PG3PHASE = 0x3b8
                    0x03ba                  PG3DC = 0x3ba
                    0x03ba                  _PG3DC = 0x3ba
                    0x03bc                  PG3DCA = 0x3bc
                    0x03bc                  _PG3DCA = 0x3bc
                    0x03bc                  _PG3DCAbits = 0x3bc
                    0x03be                  PG3PER = 0x3be
                    0x03be                  _PG3PER = 0x3be
                    0x03c0                  PG3TRIGA = 0x3c0
                    0x03c0                  _PG3TRIGA = 0x3c0
                    0x03c2                  PG3TRIGB = 0x3c2
                    0x03c2                  _PG3TRIGB = 0x3c2
                    0x03c4                  PG3TRIGC = 0x3c4
                    0x03c4                  _PG3TRIGC = 0x3c4
                    0x03c6                  PG3DTL = 0x3c6
                    0x03c6                  _PG3DTL = 0x3c6
                    0x03c6                  _PG3DTLbits = 0x3c6
                    0x03c8                  PG3DTH = 0x3c8
                    0x03c8                  _PG3DTH = 0x3c8
                    0x03c8                  _PG3DTHbits = 0x3c8
                    0x03ca                  PG3CAP = 0x3ca
                    0x03ca                  _PG3CAP = 0x3ca
                    0x03cc                  PG4CONL = 0x3cc
                    0x03cc                  _PG4CONL = 0x3cc
                    0x03cc                  _PG4CONLbits = 0x3cc
                    0x03ce                  PG4CONH = 0x3ce
                    0x03ce                  _PG4CONH = 0x3ce
                    0x03ce                  _PG4CONHbits = 0x3ce
                    0x03d0                  PG4STAT = 0x3d0
                    0x03d0                  _PG4STAT = 0x3d0
                    0x03d0                  _PG4STATbits = 0x3d0
                    0x03d2                  PG4IOCONL = 0x3d2
                    0x03d2                  _PG4IOCONL = 0x3d2
                    0x03d2                  _PG4IOCONLbits = 0x3d2
                    0x03d4                  PG4IOCONH = 0x3d4
                    0x03d4                  _PG4IOCONH = 0x3d4
                    0x03d4                  _PG4IOCONHbits = 0x3d4
                    0x03d6                  PG4EVTL = 0x3d6
                    0x03d6                  _PG4EVTL = 0x3d6
                    0x03d6                  _PG4EVTLbits = 0x3d6
                    0x03d8                  PG4EVTH = 0x3d8
                    0x03d8                  _PG4EVTH = 0x3d8
                    0x03d8                  _PG4EVTHbits = 0x3d8
                    0x03da                  PG4FPCIL = 0x3da
                    0x03da                  _PG4FPCIL = 0x3da
                    0x03da                  _PG4FPCILbits = 0x3da
                    0x03dc                  PG4FPCIH = 0x3dc
                    0x03dc                  _PG4FPCIH = 0x3dc
                    0x03dc                  _PG4FPCIHbits = 0x3dc
                    0x03de                  PG4CLPCIL = 0x3de
                    0x03de                  _PG4CLPCIL = 0x3de
                    0x03de                  _PG4CLPCILbits = 0x3de
                    0x03e0                  PG4CLPCIH = 0x3e0
                    0x03e0                  _PG4CLPCIH = 0x3e0
                    0x03e0                  _PG4CLPCIHbits = 0x3e0
                    0x03e2                  PG4FFPCIL = 0x3e2
                    0x03e2                  _PG4FFPCIL = 0x3e2
                    0x03e2                  _PG4FFPCILbits = 0x3e2
                    0x03e4                  PG4FFPCIH = 0x3e4
                    0x03e4                  _PG4FFPCIH = 0x3e4
                    0x03e4                  _PG4FFPCIHbits = 0x3e4
                    0x03e6                  PG4SPCIL = 0x3e6
                    0x03e6                  _PG4SPCIL = 0x3e6
                    0x03e6                  _PG4SPCILbits = 0x3e6
                    0x03e8                  PG4SPCIH = 0x3e8
                    0x03e8                  _PG4SPCIH = 0x3e8
                    0x03e8                  _PG4SPCIHbits = 0x3e8
                    0x03ea                  PG4LEBL = 0x3ea
                    0x03ea                  _PG4LEBL = 0x3ea
                    0x03ec                  PG4LEBH = 0x3ec
                    0x03ec                  _PG4LEBH = 0x3ec
                    0x03ec                  _PG4LEBHbits = 0x3ec
                    0x03ee                  PG4PHASE = 0x3ee
                    0x03ee                  _PG4PHASE = 0x3ee
                    0x03f0                  PG4DC = 0x3f0
                    0x03f0                  _PG4DC = 0x3f0
                    0x03f2                  PG4DCA = 0x3f2
                    0x03f2                  _PG4DCA = 0x3f2
                    0x03f2                  _PG4DCAbits = 0x3f2
                    0x03f4                  PG4PER = 0x3f4
                    0x03f4                  _PG4PER = 0x3f4
                    0x03f6                  PG4TRIGA = 0x3f6
                    0x03f6                  _PG4TRIGA = 0x3f6
                    0x03f8                  PG4TRIGB = 0x3f8
                    0x03f8                  _PG4TRIGB = 0x3f8
                    0x03fa                  PG4TRIGC = 0x3fa
                    0x03fa                  _PG4TRIGC = 0x3fa
                    0x03fc                  PG4DTL = 0x3fc
                    0x03fc                  _PG4DTL = 0x3fc
                    0x03fc                  _PG4DTLbits = 0x3fc
                    0x03fe                  PG4DTH = 0x3fe
                    0x03fe                  _PG4DTH = 0x3fe
                    0x03fe                  _PG4DTHbits = 0x3fe
                    0x0400                  PG4CAP = 0x400
                    0x0400                  _PG4CAP = 0x400
                    0x0402                  PG5CONL = 0x402
                    0x0402                  _PG5CONL = 0x402
                    0x0402                  _PG5CONLbits = 0x402
                    0x0404                  PG5CONH = 0x404
                    0x0404                  _PG5CONH = 0x404
                    0x0404                  _PG5CONHbits = 0x404
                    0x0406                  PG5STAT = 0x406
                    0x0406                  _PG5STAT = 0x406
                    0x0406                  _PG5STATbits = 0x406
                    0x0408                  PG5IOCONL = 0x408
                    0x0408                  _PG5IOCONL = 0x408
                    0x0408                  _PG5IOCONLbits = 0x408
                    0x040a                  PG5IOCONH = 0x40a
                    0x040a                  _PG5IOCONH = 0x40a
                    0x040a                  _PG5IOCONHbits = 0x40a
                    0x040c                  PG5EVTL = 0x40c
                    0x040c                  _PG5EVTL = 0x40c
                    0x040c                  _PG5EVTLbits = 0x40c
                    0x040e                  PG5EVTH = 0x40e
                    0x040e                  _PG5EVTH = 0x40e
                    0x040e                  _PG5EVTHbits = 0x40e
                    0x0410                  PG5FPCIL = 0x410
                    0x0410                  _PG5FPCIL = 0x410
                    0x0410                  _PG5FPCILbits = 0x410
                    0x0412                  PG5FPCIH = 0x412
                    0x0412                  _PG5FPCIH = 0x412
                    0x0412                  _PG5FPCIHbits = 0x412
                    0x0414                  PG5CLPCIL = 0x414
                    0x0414                  _PG5CLPCIL = 0x414
                    0x0414                  _PG5CLPCILbits = 0x414
                    0x0416                  PG5CLPCIH = 0x416
                    0x0416                  _PG5CLPCIH = 0x416
                    0x0416                  _PG5CLPCIHbits = 0x416
                    0x0418                  PG5FFPCIL = 0x418
                    0x0418                  _PG5FFPCIL = 0x418
                    0x0418                  _PG5FFPCILbits = 0x418
                    0x041a                  PG5FFPCIH = 0x41a
                    0x041a                  _PG5FFPCIH = 0x41a
                    0x041a                  _PG5FFPCIHbits = 0x41a
                    0x041c                  PG5SPCIL = 0x41c
                    0x041c                  _PG5SPCIL = 0x41c
                    0x041c                  _PG5SPCILbits = 0x41c
                    0x041e                  PG5SPCIH = 0x41e
                    0x041e                  _PG5SPCIH = 0x41e
                    0x041e                  _PG5SPCIHbits = 0x41e
                    0x0420                  PG5LEBL = 0x420
                    0x0420                  _PG5LEBL = 0x420
                    0x0422                  PG5LEBH = 0x422
                    0x0422                  _PG5LEBH = 0x422
                    0x0422                  _PG5LEBHbits = 0x422
                    0x0424                  PG5PHASE = 0x424
                    0x0424                  _PG5PHASE = 0x424
                    0x0426                  PG5DC = 0x426
                    0x0426                  _PG5DC = 0x426
                    0x0428                  PG5DCA = 0x428
                    0x0428                  _PG5DCA = 0x428
                    0x0428                  _PG5DCAbits = 0x428
                    0x042a                  PG5PER = 0x42a
                    0x042a                  _PG5PER = 0x42a
                    0x042c                  PG5TRIGA = 0x42c
                    0x042c                  _PG5TRIGA = 0x42c
                    0x042e                  PG5TRIGB = 0x42e
                    0x042e                  _PG5TRIGB = 0x42e
                    0x0430                  PG5TRIGC = 0x430
                    0x0430                  _PG5TRIGC = 0x430
                    0x0432                  PG5DTL = 0x432
                    0x0432                  _PG5DTL = 0x432
                    0x0432                  _PG5DTLbits = 0x432
                    0x0434                  PG5DTH = 0x434
                    0x0434                  _PG5DTH = 0x434
                    0x0434                  _PG5DTHbits = 0x434
                    0x0436                  PG5CAP = 0x436
                    0x0436                  _PG5CAP = 0x436
                    0x0438                  PG6CONL = 0x438
                    0x0438                  _PG6CONL = 0x438
                    0x0438                  _PG6CONLbits = 0x438
                    0x043a                  PG6CONH = 0x43a
                    0x043a                  _PG6CONH = 0x43a
                    0x043a                  _PG6CONHbits = 0x43a
                    0x043c                  PG6STAT = 0x43c
                    0x043c                  _PG6STAT = 0x43c
                    0x043c                  _PG6STATbits = 0x43c
                    0x043e                  PG6IOCONL = 0x43e
                    0x043e                  _PG6IOCONL = 0x43e
                    0x043e                  _PG6IOCONLbits = 0x43e
                    0x0440                  PG6IOCONH = 0x440
                    0x0440                  _PG6IOCONH = 0x440
                    0x0440                  _PG6IOCONHbits = 0x440
                    0x0442                  PG6EVTL = 0x442
                    0x0442                  _PG6EVTL = 0x442
                    0x0442                  _PG6EVTLbits = 0x442
                    0x0444                  PG6EVTH = 0x444
                    0x0444                  _PG6EVTH = 0x444
                    0x0444                  _PG6EVTHbits = 0x444
                    0x0446                  PG6FPCIL = 0x446
                    0x0446                  _PG6FPCIL = 0x446
                    0x0446                  _PG6FPCILbits = 0x446
                    0x0448                  PG6FPCIH = 0x448
                    0x0448                  _PG6FPCIH = 0x448
                    0x0448                  _PG6FPCIHbits = 0x448
                    0x044a                  PG6CLPCIL = 0x44a
                    0x044a                  _PG6CLPCIL = 0x44a
                    0x044a                  _PG6CLPCILbits = 0x44a
                    0x044c                  PG6CLPCIH = 0x44c
                    0x044c                  _PG6CLPCIH = 0x44c
                    0x044c                  _PG6CLPCIHbits = 0x44c
                    0x044e                  PG6FFPCIL = 0x44e
                    0x044e                  _PG6FFPCIL = 0x44e
                    0x044e                  _PG6FFPCILbits = 0x44e
                    0x0450                  PG6FFPCIH = 0x450
                    0x0450                  _PG6FFPCIH = 0x450
                    0x0450                  _PG6FFPCIHbits = 0x450
                    0x0452                  PG6SPCIL = 0x452
                    0x0452                  _PG6SPCIL = 0x452
                    0x0452                  _PG6SPCILbits = 0x452
                    0x0454                  PG6SPCIH = 0x454
                    0x0454                  _PG6SPCIH = 0x454
                    0x0454                  _PG6SPCIHbits = 0x454
                    0x0456                  PG6LEBL = 0x456
                    0x0456                  _PG6LEBL = 0x456
                    0x0458                  PG6LEBH = 0x458
                    0x0458                  _PG6LEBH = 0x458
                    0x0458                  _PG6LEBHbits = 0x458
                    0x045a                  PG6PHASE = 0x45a
                    0x045a                  _PG6PHASE = 0x45a
                    0x045c                  PG6DC = 0x45c
                    0x045c                  _PG6DC = 0x45c
                    0x045e                  PG6DCA = 0x45e
                    0x045e                  _PG6DCA = 0x45e
                    0x045e                  _PG6DCAbits = 0x45e
                    0x0460                  PG6PER = 0x460
                    0x0460                  _PG6PER = 0x460
                    0x0462                  PG6TRIGA = 0x462
                    0x0462                  _PG6TRIGA = 0x462
                    0x0464                  PG6TRIGB = 0x464
                    0x0464                  _PG6TRIGB = 0x464
                    0x0466                  PG6TRIGC = 0x466
                    0x0466                  _PG6TRIGC = 0x466
                    0x0468                  PG6DTL = 0x468
                    0x0468                  _PG6DTL = 0x468
                    0x0468                  _PG6DTLbits = 0x468
                    0x046a                  PG6DTH = 0x46a
                    0x046a                  _PG6DTH = 0x46a
                    0x046a                  _PG6DTHbits = 0x46a
                    0x046c                  PG6CAP = 0x46c
                    0x046c                  _PG6CAP = 0x46c
                    0x046e                  PG7CONL = 0x46e
                    0x046e                  _PG7CONL = 0x46e
                    0x046e                  _PG7CONLbits = 0x46e
                    0x0470                  PG7CONH = 0x470
                    0x0470                  _PG7CONH = 0x470
                    0x0470                  _PG7CONHbits = 0x470
                    0x0472                  PG7STAT = 0x472
                    0x0472                  _PG7STAT = 0x472
                    0x0472                  _PG7STATbits = 0x472
                    0x0474                  PG7IOCONL = 0x474
                    0x0474                  _PG7IOCONL = 0x474
                    0x0474                  _PG7IOCONLbits = 0x474
                    0x0476                  PG7IOCONH = 0x476
                    0x0476                  _PG7IOCONH = 0x476
                    0x0476                  _PG7IOCONHbits = 0x476
                    0x0478                  PG7EVTL = 0x478
                    0x0478                  _PG7EVTL = 0x478
                    0x0478                  _PG7EVTLbits = 0x478
                    0x047a                  PG7EVTH = 0x47a
                    0x047a                  _PG7EVTH = 0x47a
                    0x047a                  _PG7EVTHbits = 0x47a
                    0x047c                  PG7FPCIL = 0x47c
                    0x047c                  _PG7FPCIL = 0x47c
                    0x047c                  _PG7FPCILbits = 0x47c
                    0x047e                  PG7FPCIH = 0x47e
                    0x047e                  _PG7FPCIH = 0x47e
                    0x047e                  _PG7FPCIHbits = 0x47e
                    0x0480                  PG7CLPCIL = 0x480
                    0x0480                  _PG7CLPCIL = 0x480
                    0x0480                  _PG7CLPCILbits = 0x480
                    0x0482                  PG7CLPCIH = 0x482
                    0x0482                  _PG7CLPCIH = 0x482
                    0x0482                  _PG7CLPCIHbits = 0x482
                    0x0484                  PG7FFPCIL = 0x484
                    0x0484                  _PG7FFPCIL = 0x484
                    0x0484                  _PG7FFPCILbits = 0x484
                    0x0486                  PG7FFPCIH = 0x486
                    0x0486                  _PG7FFPCIH = 0x486
                    0x0486                  _PG7FFPCIHbits = 0x486
                    0x0488                  PG7SPCIL = 0x488
                    0x0488                  _PG7SPCIL = 0x488
                    0x0488                  _PG7SPCILbits = 0x488
                    0x048a                  PG7SPCIH = 0x48a
                    0x048a                  _PG7SPCIH = 0x48a
                    0x048a                  _PG7SPCIHbits = 0x48a
                    0x048c                  PG7LEBL = 0x48c
                    0x048c                  _PG7LEBL = 0x48c
                    0x048e                  PG7LEBH = 0x48e
                    0x048e                  _PG7LEBH = 0x48e
                    0x048e                  _PG7LEBHbits = 0x48e
                    0x0490                  PG7PHASE = 0x490
                    0x0490                  _PG7PHASE = 0x490
                    0x0492                  PG7DC = 0x492
                    0x0492                  _PG7DC = 0x492
                    0x0494                  PG7DCA = 0x494
                    0x0494                  _PG7DCA = 0x494
                    0x0494                  _PG7DCAbits = 0x494
                    0x0496                  PG7PER = 0x496
                    0x0496                  _PG7PER = 0x496
                    0x0498                  PG7TRIGA = 0x498
                    0x0498                  _PG7TRIGA = 0x498
                    0x049a                  PG7TRIGB = 0x49a
                    0x049a                  _PG7TRIGB = 0x49a
                    0x049c                  PG7TRIGC = 0x49c
                    0x049c                  _PG7TRIGC = 0x49c
                    0x049e                  PG7DTL = 0x49e
                    0x049e                  _PG7DTL = 0x49e
                    0x049e                  _PG7DTLbits = 0x49e
                    0x04a0                  PG7DTH = 0x4a0
                    0x04a0                  _PG7DTH = 0x4a0
                    0x04a0                  _PG7DTHbits = 0x4a0
                    0x04a2                  PG7CAP = 0x4a2
                    0x04a2                  _PG7CAP = 0x4a2
                    0x04a4                  PG8CONL = 0x4a4
                    0x04a4                  _PG8CONL = 0x4a4
                    0x04a4                  _PG8CONLbits = 0x4a4
                    0x04a6                  PG8CONH = 0x4a6
                    0x04a6                  _PG8CONH = 0x4a6
                    0x04a6                  _PG8CONHbits = 0x4a6
                    0x04a8                  PG8STAT = 0x4a8
                    0x04a8                  _PG8STAT = 0x4a8
                    0x04a8                  _PG8STATbits = 0x4a8
                    0x04aa                  PG8IOCONL = 0x4aa
                    0x04aa                  _PG8IOCONL = 0x4aa
                    0x04aa                  _PG8IOCONLbits = 0x4aa
                    0x04ac                  PG8IOCONH = 0x4ac
                    0x04ac                  _PG8IOCONH = 0x4ac
                    0x04ac                  _PG8IOCONHbits = 0x4ac
                    0x04ae                  PG8EVTL = 0x4ae
                    0x04ae                  _PG8EVTL = 0x4ae
                    0x04ae                  _PG8EVTLbits = 0x4ae
                    0x04b0                  PG8EVTH = 0x4b0
                    0x04b0                  _PG8EVTH = 0x4b0
                    0x04b0                  _PG8EVTHbits = 0x4b0
                    0x04b2                  PG8FPCIL = 0x4b2
                    0x04b2                  _PG8FPCIL = 0x4b2
                    0x04b2                  _PG8FPCILbits = 0x4b2
                    0x04b4                  PG8FPCIH = 0x4b4
                    0x04b4                  _PG8FPCIH = 0x4b4
                    0x04b4                  _PG8FPCIHbits = 0x4b4
                    0x04b6                  PG8CLPCIL = 0x4b6
                    0x04b6                  _PG8CLPCIL = 0x4b6
                    0x04b6                  _PG8CLPCILbits = 0x4b6
                    0x04b8                  PG8CLPCIH = 0x4b8
                    0x04b8                  _PG8CLPCIH = 0x4b8
                    0x04b8                  _PG8CLPCIHbits = 0x4b8
                    0x04ba                  PG8FFPCIL = 0x4ba
                    0x04ba                  _PG8FFPCIL = 0x4ba
                    0x04ba                  _PG8FFPCILbits = 0x4ba
                    0x04bc                  PG8FFPCIH = 0x4bc
                    0x04bc                  _PG8FFPCIH = 0x4bc
                    0x04bc                  _PG8FFPCIHbits = 0x4bc
                    0x04be                  PG8SPCIL = 0x4be
                    0x04be                  _PG8SPCIL = 0x4be
                    0x04be                  _PG8SPCILbits = 0x4be
                    0x04c0                  PG8SPCIH = 0x4c0
                    0x04c0                  _PG8SPCIH = 0x4c0
                    0x04c0                  _PG8SPCIHbits = 0x4c0
                    0x04c2                  PG8LEBL = 0x4c2
                    0x04c2                  _PG8LEBL = 0x4c2
                    0x04c4                  PG8LEBH = 0x4c4
                    0x04c4                  _PG8LEBH = 0x4c4
                    0x04c4                  _PG8LEBHbits = 0x4c4
                    0x04c6                  PG8PHASE = 0x4c6
                    0x04c6                  _PG8PHASE = 0x4c6
                    0x04c8                  PG8DC = 0x4c8
                    0x04c8                  _PG8DC = 0x4c8
                    0x04ca                  PG8DCA = 0x4ca
                    0x04ca                  _PG8DCA = 0x4ca
                    0x04ca                  _PG8DCAbits = 0x4ca
                    0x04cc                  PG8PER = 0x4cc
                    0x04cc                  _PG8PER = 0x4cc
                    0x04ce                  PG8TRIGA = 0x4ce
                    0x04ce                  _PG8TRIGA = 0x4ce
                    0x04d0                  PG8TRIGB = 0x4d0
                    0x04d0                  _PG8TRIGB = 0x4d0
                    0x04d2                  PG8TRIGC = 0x4d2
                    0x04d2                  _PG8TRIGC = 0x4d2
                    0x04d4                  PG8DTL = 0x4d4
                    0x04d4                  _PG8DTL = 0x4d4
                    0x04d4                  _PG8DTLbits = 0x4d4
                    0x04d6                  PG8DTH = 0x4d6
                    0x04d6                  _PG8DTH = 0x4d6
                    0x04d6                  _PG8DTHbits = 0x4d6
                    0x04d8                  PG8CAP = 0x4d8
                    0x04d8                  _PG8CAP = 0x4d8
                    0x05c0                  C1CONL = 0x5c0
                    0x05c0                  _C1CONL = 0x5c0
                    0x05c0                  _C1CONLbits = 0x5c0
                    0x05c2                  C1CONH = 0x5c2
                    0x05c2                  _C1CONH = 0x5c2
                    0x05c2                  _C1CONHbits = 0x5c2
                    0x05c4                  C1NBTCFGL = 0x5c4
                    0x05c4                  _C1NBTCFGL = 0x5c4
                    0x05c4                  _C1NBTCFGLbits = 0x5c4
                    0x05c6                  C1NBTCFGH = 0x5c6
                    0x05c6                  _C1NBTCFGH = 0x5c6
                    0x05c6                  _C1NBTCFGHbits = 0x5c6
                    0x05c8                  C1DBTCFGL = 0x5c8
                    0x05c8                  _C1DBTCFGL = 0x5c8
                    0x05c8                  _C1DBTCFGLbits = 0x5c8
                    0x05ca                  C1DBTCFGH = 0x5ca
                    0x05ca                  _C1DBTCFGH = 0x5ca
                    0x05ca                  _C1DBTCFGHbits = 0x5ca
                    0x05cc                  C1TDCL = 0x5cc
                    0x05cc                  _C1TDCL = 0x5cc
                    0x05cc                  _C1TDCLbits = 0x5cc
                    0x05ce                  C1TDCH = 0x5ce
                    0x05ce                  _C1TDCH = 0x5ce
                    0x05ce                  _C1TDCHbits = 0x5ce
                    0x05d0                  C1TBCL = 0x5d0
                    0x05d0                  _C1TBCL = 0x5d0
                    0x05d0                  _C1TBCLbits = 0x5d0
                    0x05d2                  C1TBCH = 0x5d2
                    0x05d2                  _C1TBCH = 0x5d2
                    0x05d2                  _C1TBCHbits = 0x5d2
                    0x05d4                  C1TSCONL = 0x5d4
                    0x05d4                  _C1TSCONL = 0x5d4
                    0x05d4                  _C1TSCONLbits = 0x5d4
                    0x05d6                  C1TSCONH = 0x5d6
                    0x05d6                  _C1TSCONH = 0x5d6
                    0x05d6                  _C1TSCONHbits = 0x5d6
                    0x05d8                  C1VECL = 0x5d8
                    0x05d8                  _C1VECL = 0x5d8
                    0x05d8                  _C1VECLbits = 0x5d8
                    0x05da                  C1VECH = 0x5da
                    0x05da                  _C1VECH = 0x5da
                    0x05da                  _C1VECHbits = 0x5da
                    0x05dc                  C1INTL = 0x5dc
                    0x05dc                  _C1INTL = 0x5dc
                    0x05dc                  _C1INTLbits = 0x5dc
                    0x05de                  C1INTH = 0x5de
                    0x05de                  _C1INTH = 0x5de
                    0x05de                  _C1INTHbits = 0x5de
                    0x05e0                  C1RXIFL = 0x5e0
                    0x05e0                  _C1RXIFL = 0x5e0
                    0x05e0                  _C1RXIFLbits = 0x5e0
                    0x05e2                  C1RXIFH = 0x5e2
                    0x05e2                  _C1RXIFH = 0x5e2
                    0x05e2                  _C1RXIFHbits = 0x5e2
                    0x05e4                  C1TXIFL = 0x5e4
                    0x05e4                  _C1TXIFL = 0x5e4
                    0x05e4                  _C1TXIFLbits = 0x5e4
                    0x05e6                  C1TXIFH = 0x5e6
                    0x05e6                  _C1TXIFH = 0x5e6
                    0x05e6                  _C1TXIFHbits = 0x5e6
                    0x05e8                  C1RXOVIFL = 0x5e8
                    0x05e8                  _C1RXOVIFL = 0x5e8
                    0x05e8                  _C1RXOVIFLbits = 0x5e8
                    0x05ea                  C1RXOVIFH = 0x5ea
                    0x05ea                  _C1RXOVIFH = 0x5ea
                    0x05ea                  _C1RXOVIFHbits = 0x5ea
                    0x05ec                  C1TXATIFL = 0x5ec
                    0x05ec                  _C1TXATIFL = 0x5ec
                    0x05ec                  _C1TXATIFLbits = 0x5ec
                    0x05ee                  C1TXATIFH = 0x5ee
                    0x05ee                  _C1TXATIFH = 0x5ee
                    0x05ee                  _C1TXATIFHbits = 0x5ee
                    0x05f0                  C1TXREQL = 0x5f0
                    0x05f0                  _C1TXREQL = 0x5f0
                    0x05f0                  _C1TXREQLbits = 0x5f0
                    0x05f2                  C1TXREQH = 0x5f2
                    0x05f2                  _C1TXREQH = 0x5f2
                    0x05f2                  _C1TXREQHbits = 0x5f2
                    0x05f4                  C1TRECL = 0x5f4
                    0x05f4                  _C1TRECL = 0x5f4
                    0x05f4                  _C1TRECLbits = 0x5f4
                    0x05f6                  C1TRECH = 0x5f6
                    0x05f6                  _C1TRECH = 0x5f6
                    0x05f6                  _C1TRECHbits = 0x5f6
                    0x05f8                  C1BDIAG0L = 0x5f8
                    0x05f8                  _C1BDIAG0L = 0x5f8
                    0x05f8                  _C1BDIAG0Lbits = 0x5f8
                    0x05fa                  C1BDIAG0H = 0x5fa
                    0x05fa                  _C1BDIAG0H = 0x5fa
                    0x05fa                  _C1BDIAG0Hbits = 0x5fa
                    0x05fc                  C1BDIAG1L = 0x5fc
                    0x05fc                  _C1BDIAG1L = 0x5fc
                    0x05fc                  _C1BDIAG1Lbits = 0x5fc
                    0x05fe                  C1BDIAG1H = 0x5fe
                    0x05fe                  _C1BDIAG1H = 0x5fe
                    0x05fe                  _C1BDIAG1Hbits = 0x5fe
                    0x0600                  C1TEFCONL = 0x600
                    0x0600                  _C1TEFCONL = 0x600
                    0x0600                  _C1TEFCONLbits = 0x600
                    0x0602                  C1TEFCONH = 0x602
                    0x0602                  _C1TEFCONH = 0x602
                    0x0602                  _C1TEFCONHbits = 0x602
                    0x0604                  C1TEFSTA = 0x604
                    0x0604                  _C1TEFSTA = 0x604
                    0x0604                  _C1TEFSTAbits = 0x604
                    0x0608                  C1TEFUAL = 0x608
                    0x0608                  _C1TEFUAL = 0x608
                    0x0608                  _C1TEFUALbits = 0x608
                    0x060a                  C1TEFUAH = 0x60a
                    0x060a                  _C1TEFUAH = 0x60a
                    0x060a                  _C1TEFUAHbits = 0x60a
                    0x060c                  C1FIFOBAL = 0x60c
                    0x060c                  _C1FIFOBAL = 0x60c
                    0x060c                  _C1FIFOBALbits = 0x60c
                    0x060e                  C1FIFOBAH = 0x60e
                    0x060e                  _C1FIFOBAH = 0x60e
                    0x060e                  _C1FIFOBAHbits = 0x60e
                    0x0610                  C1TXQCONL = 0x610
                    0x0610                  _C1TXQCONL = 0x610
                    0x0610                  _C1TXQCONLbits = 0x610
                    0x0612                  C1TXQCONH = 0x612
                    0x0612                  _C1TXQCONH = 0x612
                    0x0612                  _C1TXQCONHbits = 0x612
                    0x0614                  C1TXQSTA = 0x614
                    0x0614                  _C1TXQSTA = 0x614
                    0x0614                  _C1TXQSTAbits = 0x614
                    0x0618                  C1TXQUAL = 0x618
                    0x0618                  _C1TXQUAL = 0x618
                    0x0618                  _C1TXQUALbits = 0x618
                    0x061a                  C1TXQUAH = 0x61a
                    0x061a                  _C1TXQUAH = 0x61a
                    0x061a                  _C1TXQUAHbits = 0x61a
                    0x061c                  C1FIFOCON1L = 0x61c
                    0x061c                  _C1FIFOCON1L = 0x61c
                    0x061c                  _C1FIFOCON1Lbits = 0x61c
                    0x061e                  C1FIFOCON1H = 0x61e
                    0x061e                  _C1FIFOCON1H = 0x61e
                    0x061e                  _C1FIFOCON1Hbits = 0x61e
                    0x0620                  C1FIFOSTA1 = 0x620
                    0x0620                  _C1FIFOSTA1 = 0x620
                    0x0620                  _C1FIFOSTA1bits = 0x620
                    0x0624                  C1FIFOUA1L = 0x624
                    0x0624                  _C1FIFOUA1L = 0x624
                    0x0624                  _C1FIFOUA1Lbits = 0x624
                    0x0626                  C1FIFOUA1H = 0x626
                    0x0626                  _C1FIFOUA1H = 0x626
                    0x0626                  _C1FIFOUA1Hbits = 0x626
                    0x0628                  C1FIFOCON2L = 0x628
                    0x0628                  _C1FIFOCON2L = 0x628
                    0x0628                  _C1FIFOCON2Lbits = 0x628
                    0x062a                  C1FIFOCON2H = 0x62a
                    0x062a                  _C1FIFOCON2H = 0x62a
                    0x062a                  _C1FIFOCON2Hbits = 0x62a
                    0x062c                  C1FIFOSTA2 = 0x62c
                    0x062c                  _C1FIFOSTA2 = 0x62c
                    0x062c                  _C1FIFOSTA2bits = 0x62c
                    0x0630                  C1FIFOUA2L = 0x630
                    0x0630                  _C1FIFOUA2L = 0x630
                    0x0630                  _C1FIFOUA2Lbits = 0x630
                    0x0632                  C1FIFOUA2H = 0x632
                    0x0632                  _C1FIFOUA2H = 0x632
                    0x0632                  _C1FIFOUA2Hbits = 0x632
                    0x0634                  C1FIFOCON3L = 0x634
                    0x0634                  _C1FIFOCON3L = 0x634
                    0x0634                  _C1FIFOCON3Lbits = 0x634
                    0x0636                  C1FIFOCON3H = 0x636
                    0x0636                  _C1FIFOCON3H = 0x636
                    0x0636                  _C1FIFOCON3Hbits = 0x636
                    0x0638                  C1FIFOSTA3 = 0x638
                    0x0638                  _C1FIFOSTA3 = 0x638
                    0x0638                  _C1FIFOSTA3bits = 0x638
                    0x063c                  C1FIFOUA3L = 0x63c
                    0x063c                  _C1FIFOUA3L = 0x63c
                    0x063c                  _C1FIFOUA3Lbits = 0x63c
                    0x063e                  C1FIFOUA3H = 0x63e
                    0x063e                  _C1FIFOUA3H = 0x63e
                    0x063e                  _C1FIFOUA3Hbits = 0x63e
                    0x0640                  C1FIFOCON4L = 0x640
                    0x0640                  _C1FIFOCON4L = 0x640
                    0x0640                  _C1FIFOCON4Lbits = 0x640
                    0x0642                  C1FIFOCON4H = 0x642
                    0x0642                  _C1FIFOCON4H = 0x642
                    0x0642                  _C1FIFOCON4Hbits = 0x642
                    0x0644                  C1FIFOSTA4 = 0x644
                    0x0644                  _C1FIFOSTA4 = 0x644
                    0x0644                  _C1FIFOSTA4bits = 0x644
                    0x0648                  C1FIFOUA4L = 0x648
                    0x0648                  _C1FIFOUA4L = 0x648
                    0x0648                  _C1FIFOUA4Lbits = 0x648
                    0x064a                  C1FIFOUA4H = 0x64a
                    0x064a                  _C1FIFOUA4H = 0x64a
                    0x064a                  _C1FIFOUA4Hbits = 0x64a
                    0x064c                  C1FIFOCON5L = 0x64c
                    0x064c                  _C1FIFOCON5L = 0x64c
                    0x064c                  _C1FIFOCON5Lbits = 0x64c
                    0x064e                  C1FIFOCON5H = 0x64e
                    0x064e                  _C1FIFOCON5H = 0x64e
                    0x064e                  _C1FIFOCON5Hbits = 0x64e
                    0x0650                  C1FIFOSTA5 = 0x650
                    0x0650                  _C1FIFOSTA5 = 0x650
                    0x0650                  _C1FIFOSTA5bits = 0x650
                    0x0654                  C1FIFOUA5L = 0x654
                    0x0654                  _C1FIFOUA5L = 0x654
                    0x0654                  _C1FIFOUA5Lbits = 0x654
                    0x0656                  C1FIFOUA5H = 0x656
                    0x0656                  _C1FIFOUA5H = 0x656
                    0x0656                  _C1FIFOUA5Hbits = 0x656
                    0x0658                  C1FIFOCON6L = 0x658
                    0x0658                  _C1FIFOCON6L = 0x658
                    0x0658                  _C1FIFOCON6Lbits = 0x658
                    0x065a                  C1FIFOCON6H = 0x65a
                    0x065a                  _C1FIFOCON6H = 0x65a
                    0x065a                  _C1FIFOCON6Hbits = 0x65a
                    0x065c                  C1FIFOSTA6 = 0x65c
                    0x065c                  _C1FIFOSTA6 = 0x65c
                    0x065c                  _C1FIFOSTA6bits = 0x65c
                    0x0660                  C1FIFOUA6L = 0x660
                    0x0660                  _C1FIFOUA6L = 0x660
                    0x0660                  _C1FIFOUA6Lbits = 0x660
                    0x0662                  C1FIFOUA6H = 0x662
                    0x0662                  _C1FIFOUA6H = 0x662
                    0x0662                  _C1FIFOUA6Hbits = 0x662
                    0x0664                  C1FIFOCON7L = 0x664
                    0x0664                  _C1FIFOCON7L = 0x664
                    0x0664                  _C1FIFOCON7Lbits = 0x664
                    0x0666                  C1FIFOCON7H = 0x666
                    0x0666                  _C1FIFOCON7H = 0x666
                    0x0666                  _C1FIFOCON7Hbits = 0x666
                    0x0668                  C1FIFOSTA7 = 0x668
                    0x0668                  _C1FIFOSTA7 = 0x668
                    0x0668                  _C1FIFOSTA7bits = 0x668
                    0x066c                  C1FIFOUA7L = 0x66c
                    0x066c                  _C1FIFOUA7L = 0x66c
                    0x066c                  _C1FIFOUA7Lbits = 0x66c
                    0x066e                  C1FIFOUA7H = 0x66e
                    0x066e                  _C1FIFOUA7H = 0x66e
                    0x066e                  _C1FIFOUA7Hbits = 0x66e
                    0x0670                  C1FLTCON0L = 0x670
                    0x0670                  _C1FLTCON0L = 0x670
                    0x0670                  _C1FLTCON0Lbits = 0x670
                    0x0672                  C1FLTCON0H = 0x672
                    0x0672                  _C1FLTCON0H = 0x672
                    0x0672                  _C1FLTCON0Hbits = 0x672
                    0x0674                  C1FLTCON1L = 0x674
                    0x0674                  _C1FLTCON1L = 0x674
                    0x0674                  _C1FLTCON1Lbits = 0x674
                    0x0676                  C1FLTCON1H = 0x676
                    0x0676                  _C1FLTCON1H = 0x676
                    0x0676                  _C1FLTCON1Hbits = 0x676
                    0x0678                  C1FLTCON2L = 0x678
                    0x0678                  _C1FLTCON2L = 0x678
                    0x0678                  _C1FLTCON2Lbits = 0x678
                    0x067a                  C1FLTCON2H = 0x67a
                    0x067a                  _C1FLTCON2H = 0x67a
                    0x067a                  _C1FLTCON2Hbits = 0x67a
                    0x067c                  C1FLTCON3L = 0x67c
                    0x067c                  _C1FLTCON3L = 0x67c
                    0x067c                  _C1FLTCON3Lbits = 0x67c
                    0x067e                  C1FLTCON3H = 0x67e
                    0x067e                  _C1FLTCON3H = 0x67e
                    0x067e                  _C1FLTCON3Hbits = 0x67e
                    0x0680                  C1FLTOBJ0L = 0x680
                    0x0680                  _C1FLTOBJ0L = 0x680
                    0x0680                  _C1FLTOBJ0Lbits = 0x680
                    0x0682                  C1FLTOBJ0H = 0x682
                    0x0682                  _C1FLTOBJ0H = 0x682
                    0x0682                  _C1FLTOBJ0Hbits = 0x682
                    0x0684                  C1MASK0L = 0x684
                    0x0684                  _C1MASK0L = 0x684
                    0x0684                  _C1MASK0Lbits = 0x684
                    0x0686                  C1MASK0H = 0x686
                    0x0686                  _C1MASK0H = 0x686
                    0x0686                  _C1MASK0Hbits = 0x686
                    0x0688                  C1FLTOBJ1L = 0x688
                    0x0688                  _C1FLTOBJ1L = 0x688
                    0x0688                  _C1FLTOBJ1Lbits = 0x688
                    0x068a                  C1FLTOBJ1H = 0x68a
                    0x068a                  _C1FLTOBJ1H = 0x68a
                    0x068a                  _C1FLTOBJ1Hbits = 0x68a
                    0x068c                  C1MASK1L = 0x68c
                    0x068c                  _C1MASK1L = 0x68c
                    0x068c                  _C1MASK1Lbits = 0x68c
                    0x068e                  C1MASK1H = 0x68e
                    0x068e                  _C1MASK1H = 0x68e
                    0x068e                  _C1MASK1Hbits = 0x68e
                    0x0690                  C1FLTOBJ2L = 0x690
                    0x0690                  _C1FLTOBJ2L = 0x690
                    0x0690                  _C1FLTOBJ2Lbits = 0x690
                    0x0692                  C1FLTOBJ2H = 0x692
                    0x0692                  _C1FLTOBJ2H = 0x692
                    0x0692                  _C1FLTOBJ2Hbits = 0x692
                    0x0694                  C1MASK2L = 0x694
                    0x0694                  _C1MASK2L = 0x694
                    0x0694                  _C1MASK2Lbits = 0x694
                    0x0696                  C1MASK2H = 0x696
                    0x0696                  _C1MASK2H = 0x696
                    0x0696                  _C1MASK2Hbits = 0x696
                    0x0698                  C1FLTOBJ3L = 0x698
                    0x0698                  _C1FLTOBJ3L = 0x698
                    0x0698                  _C1FLTOBJ3Lbits = 0x698
                    0x069a                  C1FLTOBJ3H = 0x69a
                    0x069a                  _C1FLTOBJ3H = 0x69a
                    0x069a                  _C1FLTOBJ3Hbits = 0x69a
                    0x069c                  C1MASK3L = 0x69c
                    0x069c                  _C1MASK3L = 0x69c
                    0x069c                  _C1MASK3Lbits = 0x69c
                    0x069e                  C1MASK3H = 0x69e
                    0x069e                  _C1MASK3H = 0x69e
                    0x069e                  _C1MASK3Hbits = 0x69e
                    0x06a0                  C1FLTOBJ4L = 0x6a0
                    0x06a0                  _C1FLTOBJ4L = 0x6a0
                    0x06a0                  _C1FLTOBJ4Lbits = 0x6a0
                    0x06a2                  C1FLTOBJ4H = 0x6a2
                    0x06a2                  _C1FLTOBJ4H = 0x6a2
                    0x06a2                  _C1FLTOBJ4Hbits = 0x6a2
                    0x06a4                  C1MASK4L = 0x6a4
                    0x06a4                  _C1MASK4L = 0x6a4
                    0x06a4                  _C1MASK4Lbits = 0x6a4
                    0x06a6                  C1MASK4H = 0x6a6
                    0x06a6                  _C1MASK4H = 0x6a6
                    0x06a6                  _C1MASK4Hbits = 0x6a6
                    0x06a8                  C1FLTOBJ5L = 0x6a8
                    0x06a8                  _C1FLTOBJ5L = 0x6a8
                    0x06a8                  _C1FLTOBJ5Lbits = 0x6a8
                    0x06aa                  C1FLTOBJ5H = 0x6aa
                    0x06aa                  _C1FLTOBJ5H = 0x6aa
                    0x06aa                  _C1FLTOBJ5Hbits = 0x6aa
                    0x06ac                  C1MASK5L = 0x6ac
                    0x06ac                  _C1MASK5L = 0x6ac
                    0x06ac                  _C1MASK5Lbits = 0x6ac
                    0x06ae                  C1MASK5H = 0x6ae
                    0x06ae                  _C1MASK5H = 0x6ae
                    0x06ae                  _C1MASK5Hbits = 0x6ae
                    0x06b0                  C1FLTOBJ6L = 0x6b0
                    0x06b0                  _C1FLTOBJ6L = 0x6b0
                    0x06b0                  _C1FLTOBJ6Lbits = 0x6b0
                    0x06b2                  C1FLTOBJ6H = 0x6b2
                    0x06b2                  _C1FLTOBJ6H = 0x6b2
                    0x06b2                  _C1FLTOBJ6Hbits = 0x6b2
                    0x06b4                  C1MASK6L = 0x6b4
                    0x06b4                  _C1MASK6L = 0x6b4
                    0x06b4                  _C1MASK6Lbits = 0x6b4
                    0x06b6                  C1MASK6H = 0x6b6
                    0x06b6                  _C1MASK6H = 0x6b6
                    0x06b6                  _C1MASK6Hbits = 0x6b6
                    0x06b8                  C1FLTOBJ7L = 0x6b8
                    0x06b8                  _C1FLTOBJ7L = 0x6b8
                    0x06b8                  _C1FLTOBJ7Lbits = 0x6b8
                    0x06ba                  C1FLTOBJ7H = 0x6ba
                    0x06ba                  _C1FLTOBJ7H = 0x6ba
                    0x06ba                  _C1FLTOBJ7Hbits = 0x6ba
                    0x06bc                  C1MASK7L = 0x6bc
                    0x06bc                  _C1MASK7L = 0x6bc
                    0x06bc                  _C1MASK7Lbits = 0x6bc
                    0x06be                  C1MASK7H = 0x6be
                    0x06be                  _C1MASK7H = 0x6be
                    0x06be                  _C1MASK7Hbits = 0x6be
                    0x06c0                  C1FLTOBJ8L = 0x6c0
                    0x06c0                  _C1FLTOBJ8L = 0x6c0
                    0x06c0                  _C1FLTOBJ8Lbits = 0x6c0
                    0x06c2                  C1FLTOBJ8H = 0x6c2
                    0x06c2                  _C1FLTOBJ8H = 0x6c2
                    0x06c2                  _C1FLTOBJ8Hbits = 0x6c2
                    0x06c4                  C1MASK8L = 0x6c4
                    0x06c4                  _C1MASK8L = 0x6c4
                    0x06c4                  _C1MASK8Lbits = 0x6c4
                    0x06c6                  C1MASK8H = 0x6c6
                    0x06c6                  _C1MASK8H = 0x6c6
                    0x06c6                  _C1MASK8Hbits = 0x6c6
                    0x06c8                  C1FLTOBJ9L = 0x6c8
                    0x06c8                  _C1FLTOBJ9L = 0x6c8
                    0x06c8                  _C1FLTOBJ9Lbits = 0x6c8
                    0x06ca                  C1FLTOBJ9H = 0x6ca
                    0x06ca                  _C1FLTOBJ9H = 0x6ca
                    0x06ca                  _C1FLTOBJ9Hbits = 0x6ca
                    0x06cc                  C1MASK9L = 0x6cc
                    0x06cc                  _C1MASK9L = 0x6cc
                    0x06cc                  _C1MASK9Lbits = 0x6cc
                    0x06ce                  C1MASK9H = 0x6ce
                    0x06ce                  _C1MASK9H = 0x6ce
                    0x06ce                  _C1MASK9Hbits = 0x6ce
                    0x06d0                  C1FLTOBJ10L = 0x6d0
                    0x06d0                  _C1FLTOBJ10L = 0x6d0
                    0x06d0                  _C1FLTOBJ10Lbits = 0x6d0
                    0x06d2                  C1FLTOBJ10H = 0x6d2
                    0x06d2                  _C1FLTOBJ10H = 0x6d2
                    0x06d2                  _C1FLTOBJ10Hbits = 0x6d2
                    0x06d4                  C1MASK10L = 0x6d4
                    0x06d4                  _C1MASK10L = 0x6d4
                    0x06d4                  _C1MASK10Lbits = 0x6d4
                    0x06d6                  C1MASK10H = 0x6d6
                    0x06d6                  _C1MASK10H = 0x6d6
                    0x06d6                  _C1MASK10Hbits = 0x6d6
                    0x06d8                  C1FLTOBJ11L = 0x6d8
                    0x06d8                  _C1FLTOBJ11L = 0x6d8
                    0x06d8                  _C1FLTOBJ11Lbits = 0x6d8
                    0x06da                  C1FLTOBJ11H = 0x6da
                    0x06da                  _C1FLTOBJ11H = 0x6da
                    0x06da                  _C1FLTOBJ11Hbits = 0x6da
                    0x06dc                  C1MASK11L = 0x6dc
                    0x06dc                  _C1MASK11L = 0x6dc
                    0x06dc                  _C1MASK11Lbits = 0x6dc
                    0x06de                  C1MASK11H = 0x6de
                    0x06de                  _C1MASK11H = 0x6de
                    0x06de                  _C1MASK11Hbits = 0x6de
                    0x06e0                  C1FLTOBJ12L = 0x6e0
                    0x06e0                  _C1FLTOBJ12L = 0x6e0
                    0x06e0                  _C1FLTOBJ12Lbits = 0x6e0
                    0x06e2                  C1FLTOBJ12H = 0x6e2
                    0x06e2                  _C1FLTOBJ12H = 0x6e2
                    0x06e2                  _C1FLTOBJ12Hbits = 0x6e2
                    0x06e4                  C1MASK12L = 0x6e4
                    0x06e4                  _C1MASK12L = 0x6e4
                    0x06e4                  _C1MASK12Lbits = 0x6e4
                    0x06e6                  C1MASK12H = 0x6e6
                    0x06e6                  _C1MASK12H = 0x6e6
                    0x06e6                  _C1MASK12Hbits = 0x6e6
                    0x06e8                  C1FLTOBJ13L = 0x6e8
                    0x06e8                  _C1FLTOBJ13L = 0x6e8
                    0x06e8                  _C1FLTOBJ13Lbits = 0x6e8
                    0x06ea                  C1FLTOBJ13H = 0x6ea
                    0x06ea                  _C1FLTOBJ13H = 0x6ea
                    0x06ea                  _C1FLTOBJ13Hbits = 0x6ea
                    0x06ec                  C1MASK13L = 0x6ec
                    0x06ec                  _C1MASK13L = 0x6ec
                    0x06ec                  _C1MASK13Lbits = 0x6ec
                    0x06ee                  C1MASK13H = 0x6ee
                    0x06ee                  _C1MASK13H = 0x6ee
                    0x06ee                  _C1MASK13Hbits = 0x6ee
                    0x06f0                  C1FLTOBJ14L = 0x6f0
                    0x06f0                  _C1FLTOBJ14L = 0x6f0
                    0x06f0                  _C1FLTOBJ14Lbits = 0x6f0
                    0x06f2                  C1FLTOBJ14H = 0x6f2
                    0x06f2                  _C1FLTOBJ14H = 0x6f2
                    0x06f2                  _C1FLTOBJ14Hbits = 0x6f2
                    0x06f4                  C1MASK14L = 0x6f4
                    0x06f4                  _C1MASK14L = 0x6f4
                    0x06f4                  _C1MASK14Lbits = 0x6f4
                    0x06f6                  C1MASK14H = 0x6f6
                    0x06f6                  _C1MASK14H = 0x6f6
                    0x06f6                  _C1MASK14Hbits = 0x6f6
                    0x06f8                  C1FLTOBJ15L = 0x6f8
                    0x06f8                  _C1FLTOBJ15L = 0x6f8
                    0x06f8                  _C1FLTOBJ15Lbits = 0x6f8
                    0x06fa                  C1FLTOBJ15H = 0x6fa
                    0x06fa                  _C1FLTOBJ15H = 0x6fa
                    0x06fa                  _C1FLTOBJ15Hbits = 0x6fa
                    0x06fc                  C1MASK15L = 0x6fc
                    0x06fc                  _C1MASK15L = 0x6fc
                    0x06fc                  _C1MASK15Lbits = 0x6fc
                    0x06fe                  C1MASK15H = 0x6fe
                    0x06fe                  _C1MASK15H = 0x6fe
                    0x06fe                  _C1MASK15Hbits = 0x6fe
                    0x0800                  IFS0 = 0x800
                    0x0800                  _IFS0 = 0x800
                    0x0800                  _IFS0bits = 0x800
                    0x0802                  IFS1 = 0x802
                    0x0802                  _IFS1 = 0x802
                    0x0802                  _IFS1bits = 0x802
                    0x0804                  IFS2 = 0x804
                    0x0804                  _IFS2 = 0x804
                    0x0804                  _IFS2bits = 0x804
                    0x0806                  IFS3 = 0x806
                    0x0806                  _IFS3 = 0x806
                    0x0806                  _IFS3bits = 0x806
                    0x0808                  IFS4 = 0x808
                    0x0808                  _IFS4 = 0x808
                    0x0808                  _IFS4bits = 0x808
                    0x080a                  IFS5 = 0x80a
                    0x080a                  _IFS5 = 0x80a
                    0x080a                  _IFS5bits = 0x80a
                    0x080c                  IFS6 = 0x80c
                    0x080c                  _IFS6 = 0x80c
                    0x080c                  _IFS6bits = 0x80c
                    0x080e                  IFS7 = 0x80e
                    0x080e                  _IFS7 = 0x80e
                    0x080e                  _IFS7bits = 0x80e
                    0x0810                  IFS8 = 0x810
                    0x0810                  _IFS8 = 0x810
                    0x0810                  _IFS8bits = 0x810
                    0x0812                  IFS9 = 0x812
                    0x0812                  _IFS9 = 0x812
                    0x0812                  _IFS9bits = 0x812
                    0x0814                  IFS10 = 0x814
                    0x0814                  _IFS10 = 0x814
                    0x0814                  _IFS10bits = 0x814
                    0x0816                  IFS11 = 0x816
                    0x0816                  _IFS11 = 0x816
                    0x0816                  _IFS11bits = 0x816
                    0x0818                  IFS12 = 0x818
                    0x0818                  _IFS12 = 0x818
                    0x0818                  _IFS12bits = 0x818
                    0x0820                  IEC0 = 0x820
                    0x0820                  _IEC0 = 0x820
                    0x0820                  _IEC0bits = 0x820
                    0x0822                  IEC1 = 0x822
                    0x0822                  _IEC1 = 0x822
                    0x0822                  _IEC1bits = 0x822
                    0x0824                  IEC2 = 0x824
                    0x0824                  _IEC2 = 0x824
                    0x0824                  _IEC2bits = 0x824
                    0x0826                  IEC3 = 0x826
                    0x0826                  _IEC3 = 0x826
                    0x0826                  _IEC3bits = 0x826
                    0x0828                  IEC4 = 0x828
                    0x0828                  _IEC4 = 0x828
                    0x0828                  _IEC4bits = 0x828
                    0x082a                  IEC5 = 0x82a
                    0x082a                  _IEC5 = 0x82a
                    0x082a                  _IEC5bits = 0x82a
                    0x082c                  IEC6 = 0x82c
                    0x082c                  _IEC6 = 0x82c
                    0x082c                  _IEC6bits = 0x82c
                    0x082e                  IEC7 = 0x82e
                    0x082e                  _IEC7 = 0x82e
                    0x082e                  _IEC7bits = 0x82e
                    0x0830                  IEC8 = 0x830
                    0x0830                  _IEC8 = 0x830
                    0x0830                  _IEC8bits = 0x830
                    0x0832                  IEC9 = 0x832
                    0x0832                  _IEC9 = 0x832
                    0x0832                  _IEC9bits = 0x832
                    0x0834                  IEC10 = 0x834
                    0x0834                  _IEC10 = 0x834
                    0x0834                  _IEC10bits = 0x834
                    0x0836                  IEC11 = 0x836
                    0x0836                  _IEC11 = 0x836
                    0x0836                  _IEC11bits = 0x836
                    0x0838                  IEC12 = 0x838
                    0x0838                  _IEC12 = 0x838
                    0x0838                  _IEC12bits = 0x838
                    0x0840                  IPC0 = 0x840
                    0x0840                  _IPC0 = 0x840
                    0x0840                  _IPC0bits = 0x840
                    0x0842                  IPC1 = 0x842
                    0x0842                  _IPC1 = 0x842
                    0x0842                  _IPC1bits = 0x842
                    0x0844                  IPC2 = 0x844
                    0x0844                  _IPC2 = 0x844
                    0x0844                  _IPC2bits = 0x844
                    0x0846                  IPC3 = 0x846
                    0x0846                  _IPC3 = 0x846
                    0x0846                  _IPC3bits = 0x846
                    0x0848                  IPC4 = 0x848
                    0x0848                  _IPC4 = 0x848
                    0x0848                  _IPC4bits = 0x848
                    0x084a                  IPC5 = 0x84a
                    0x084a                  _IPC5 = 0x84a
                    0x084a                  _IPC5bits = 0x84a
                    0x084c                  IPC6 = 0x84c
                    0x084c                  _IPC6 = 0x84c
                    0x084c                  _IPC6bits = 0x84c
                    0x084e                  IPC7 = 0x84e
                    0x084e                  _IPC7 = 0x84e
                    0x084e                  _IPC7bits = 0x84e
                    0x0850                  IPC8 = 0x850
                    0x0850                  _IPC8 = 0x850
                    0x0850                  _IPC8bits = 0x850
                    0x0852                  IPC9 = 0x852
                    0x0852                  _IPC9 = 0x852
                    0x0852                  _IPC9bits = 0x852
                    0x0854                  IPC10 = 0x854
                    0x0854                  _IPC10 = 0x854
                    0x0854                  _IPC10bits = 0x854
                    0x0856                  IPC11 = 0x856
                    0x0856                  _IPC11 = 0x856
                    0x0856                  _IPC11bits = 0x856
                    0x0858                  IPC12 = 0x858
                    0x0858                  _IPC12 = 0x858
                    0x0858                  _IPC12bits = 0x858
                    0x085a                  IPC13 = 0x85a
                    0x085a                  _IPC13 = 0x85a
                    0x085a                  _IPC13bits = 0x85a
                    0x085c                  IPC14 = 0x85c
                    0x085c                  _IPC14 = 0x85c
                    0x085c                  _IPC14bits = 0x85c
                    0x085e                  IPC15 = 0x85e
                    0x085e                  _IPC15 = 0x85e
                    0x085e                  _IPC15bits = 0x85e
                    0x0860                  IPC16 = 0x860
                    0x0860                  _IPC16 = 0x860
                    0x0860                  _IPC16bits = 0x860
                    0x0862                  IPC17 = 0x862
                    0x0862                  _IPC17 = 0x862
                    0x0862                  _IPC17bits = 0x862
                    0x0864                  IPC18 = 0x864
                    0x0864                  _IPC18 = 0x864
                    0x0864                  _IPC18bits = 0x864
                    0x0866                  IPC19 = 0x866
                    0x0866                  _IPC19 = 0x866
                    0x0866                  _IPC19bits = 0x866
                    0x0868                  IPC20 = 0x868
                    0x0868                  _IPC20 = 0x868
                    0x0868                  _IPC20bits = 0x868
                    0x086a                  IPC21 = 0x86a
                    0x086a                  _IPC21 = 0x86a
                    0x086a                  _IPC21bits = 0x86a
                    0x086c                  IPC22 = 0x86c
                    0x086c                  _IPC22 = 0x86c
                    0x086c                  _IPC22bits = 0x86c
                    0x086e                  IPC23 = 0x86e
                    0x086e                  _IPC23 = 0x86e
                    0x086e                  _IPC23bits = 0x86e
                    0x0870                  IPC24 = 0x870
                    0x0870                  _IPC24 = 0x870
                    0x0870                  _IPC24bits = 0x870
                    0x0872                  IPC25 = 0x872
                    0x0872                  _IPC25 = 0x872
                    0x0872                  _IPC25bits = 0x872
                    0x0874                  IPC26 = 0x874
                    0x0874                  _IPC26 = 0x874
                    0x0874                  _IPC26bits = 0x874
                    0x0876                  IPC27 = 0x876
                    0x0876                  _IPC27 = 0x876
                    0x0876                  _IPC27bits = 0x876
                    0x0878                  IPC28 = 0x878
                    0x0878                  _IPC28 = 0x878
                    0x0878                  _IPC28bits = 0x878
                    0x087a                  IPC29 = 0x87a
                    0x087a                  _IPC29 = 0x87a
                    0x087a                  _IPC29bits = 0x87a
                    0x087c                  IPC30 = 0x87c
                    0x087c                  _IPC30 = 0x87c
                    0x087c                  _IPC30bits = 0x87c
                    0x087e                  IPC31 = 0x87e
                    0x087e                  _IPC31 = 0x87e
                    0x087e                  _IPC31bits = 0x87e
                    0x0880                  IPC32 = 0x880
                    0x0880                  _IPC32 = 0x880
                    0x0880                  _IPC32bits = 0x880
                    0x0886                  IPC35 = 0x886
                    0x0886                  _IPC35 = 0x886
                    0x0886                  _IPC35bits = 0x886
                    0x0888                  IPC36 = 0x888
                    0x0888                  _IPC36 = 0x888
                    0x0888                  _IPC36bits = 0x888
                    0x088a                  IPC37 = 0x88a
                    0x088a                  _IPC37 = 0x88a
                    0x088a                  _IPC37bits = 0x88a
                    0x088c                  IPC38 = 0x88c
                    0x088c                  _IPC38 = 0x88c
                    0x088c                  _IPC38bits = 0x88c
                    0x0890                  IPC40 = 0x890
                    0x0890                  _IPC40 = 0x890
                    0x0890                  _IPC40bits = 0x890
                    0x0894                  IPC42 = 0x894
                    0x0894                  _IPC42 = 0x894
                    0x0894                  _IPC42bits = 0x894
                    0x0896                  IPC43 = 0x896
                    0x0896                  _IPC43 = 0x896
                    0x0896                  _IPC43bits = 0x896
                    0x0898                  IPC44 = 0x898
                    0x0898                  _IPC44 = 0x898
                    0x0898                  _IPC44bits = 0x898
                    0x089a                  IPC45 = 0x89a
                    0x089a                  _IPC45 = 0x89a
                    0x089a                  _IPC45bits = 0x89a
                    0x089e                  IPC47 = 0x89e
                    0x089e                  _IPC47 = 0x89e
                    0x089e                  _IPC47bits = 0x89e
                    0x08a0                  IPC48 = 0x8a0
                    0x08a0                  _IPC48 = 0x8a0
                    0x08a0                  _IPC48bits = 0x8a0
                    0x08c0                  INTCON1 = 0x8c0
                    0x08c0                  _INTCON1 = 0x8c0
                    0x08c0                  _INTCON1bits = 0x8c0
                    0x08c2                  INTCON2 = 0x8c2
                    0x08c2                  _INTCON2 = 0x8c2
                    0x08c2                  _INTCON2bits = 0x8c2
                    0x08c4                  INTCON3 = 0x8c4
                    0x08c4                  _INTCON3 = 0x8c4
                    0x08c4                  _INTCON3bits = 0x8c4
                    0x08c6                  INTCON4 = 0x8c6
                    0x08c6                  _INTCON4 = 0x8c6
                    0x08c6                  _INTCON4bits = 0x8c6
                    0x08c8                  INTTREG = 0x8c8
                    0x08c8                  _INTTREG = 0x8c8
                    0x08c8                  _INTTREGbits = 0x8c8
                    0x08d0                  NVMCON = 0x8d0
                    0x08d0                  _NVMCON = 0x8d0
                    0x08d0                  _NVMCONbits = 0x8d0
                    0x08d2                  NVMADR = 0x8d2
                    0x08d2                  _NVMADR = 0x8d2
                    0x08d2                  _NVMADRbits = 0x8d2
                    0x08d2                  NVMADRL = 0x8d2
                    0x08d2                  _NVMADRL = 0x8d2
                    0x08d2                  _NVMADRLbits = 0x8d2
                    0x08d4                  NVMADRH = 0x8d4
                    0x08d4                  _NVMADRH = 0x8d4
                    0x08d4                  _NVMADRHbits = 0x8d4
                    0x08d4                  NVMADRU = 0x8d4
                    0x08d4                  _NVMADRU = 0x8d4
                    0x08d4                  _NVMADRUbits = 0x8d4
                    0x08d6                  NVMKEY = 0x8d6
                    0x08d6                  _NVMKEY = 0x8d6
                    0x08d8                  NVMSRCADDR = 0x8d8
                    0x08d8                  _NVMSRCADDR = 0x8d8
                    0x08d8                  _NVMSRCADDRbits = 0x8d8
                    0x08d8                  NVMSRCADR = 0x8d8
                    0x08d8                  _NVMSRCADR = 0x8d8
                    0x08d8                  _NVMSRCADRbits = 0x8d8
                    0x08d8                  NVMSRCADRL = 0x8d8
                    0x08d8                  _NVMSRCADRL = 0x8d8
                    0x08d8                  _NVMSRCADRLbits = 0x8d8
                    0x08da                  NVMSRCADRH = 0x8da
                    0x08da                  _NVMSRCADRH = 0x8da
                    0x08da                  _NVMSRCADRHbits = 0x8da
                    0x08dc                  AMPCON1L = 0x8dc
                    0x08dc                  _AMPCON1L = 0x8dc
                    0x08dc                  _AMPCON1Lbits = 0x8dc
                    0x08de                  AMPCON1H = 0x8de
                    0x08de                  _AMPCON1H = 0x8de
                    0x08de                  _AMPCON1Hbits = 0x8de
                    0x08f0                  BIASCON = 0x8f0
                    0x08f0                  _BIASCON = 0x8f0
                    0x08f0                  _BIASCONbits = 0x8f0
                    0x08f4                  IBIASCONL = 0x8f4
                    0x08f4                  _IBIASCONL = 0x8f4
                    0x08f4                  _IBIASCONLbits = 0x8f4
                    0x08f6                  IBIASCONH = 0x8f6
                    0x08f6                  _IBIASCONH = 0x8f6
                    0x08f6                  _IBIASCONHbits = 0x8f6
                    0x0900                  PTGCST = 0x900
                    0x0900                  _PTGCST = 0x900
                    0x0900                  _PTGCSTbits = 0x900
                    0x0902                  PTGCON = 0x902
                    0x0902                  _PTGCON = 0x902
                    0x0902                  _PTGCONbits = 0x902
                    0x0904                  PTGBTE = 0x904
                    0x0904                  _PTGBTE = 0x904
                    0x0904                  _PTGBTEbits = 0x904
                    0x0906                  PTGBTEH = 0x906
                    0x0906                  _PTGBTEH = 0x906
                    0x0906                  _PTGBTEHbits = 0x906
                    0x0908                  PTGHOLD = 0x908
                    0x0908                  _PTGHOLD = 0x908
                    0x090c                  PTGT0LIM = 0x90c
                    0x090c                  _PTGT0LIM = 0x90c
                    0x0910                  PTGT1LIM = 0x910
                    0x0910                  _PTGT1LIM = 0x910
                    0x0914                  PTGSDLIM = 0x914
                    0x0914                  _PTGSDLIM = 0x914
                    0x0918                  PTGC0LIM = 0x918
                    0x0918                  _PTGC0LIM = 0x918
                    0x091c                  PTGC1LIM = 0x91c
                    0x091c                  _PTGC1LIM = 0x91c
                    0x0920                  PTGADJ = 0x920
                    0x0920                  _PTGADJ = 0x920
                    0x0924                  PTGL0 = 0x924
                    0x0924                  _PTGL0 = 0x924
                    0x0928                  PTGQPTR = 0x928
                    0x0928                  _PTGQPTR = 0x928
                    0x0928                  _PTGQPTRbits = 0x928
                    0x0930                  PTGQUE0 = 0x930
                    0x0930                  _PTGQUE0 = 0x930
                    0x0930                  _PTGQUE0bits = 0x930
                    0x0932                  PTGQUE1 = 0x932
                    0x0932                  _PTGQUE1 = 0x932
                    0x0932                  _PTGQUE1bits = 0x932
                    0x0934                  PTGQUE2 = 0x934
                    0x0934                  _PTGQUE2 = 0x934
                    0x0934                  _PTGQUE2bits = 0x934
                    0x0936                  PTGQUE3 = 0x936
                    0x0936                  _PTGQUE3 = 0x936
                    0x0936                  _PTGQUE3bits = 0x936
                    0x0938                  PTGQUE4 = 0x938
                    0x0938                  _PTGQUE4 = 0x938
                    0x0938                  _PTGQUE4bits = 0x938
                    0x093a                  PTGQUE5 = 0x93a
                    0x093a                  _PTGQUE5 = 0x93a
                    0x093a                  _PTGQUE5bits = 0x93a
                    0x093c                  PTGQUE6 = 0x93c
                    0x093c                  _PTGQUE6 = 0x93c
                    0x093c                  _PTGQUE6bits = 0x93c
                    0x093e                  PTGQUE7 = 0x93e
                    0x093e                  _PTGQUE7 = 0x93e
                    0x093e                  _PTGQUE7bits = 0x93e
                    0x0940                  PTGQUE8 = 0x940
                    0x0940                  _PTGQUE8 = 0x940
                    0x0940                  _PTGQUE8bits = 0x940
                    0x0942                  PTGQUE9 = 0x942
                    0x0942                  _PTGQUE9 = 0x942
                    0x0942                  _PTGQUE9bits = 0x942
                    0x0944                  PTGQUE10 = 0x944
                    0x0944                  _PTGQUE10 = 0x944
                    0x0944                  _PTGQUE10bits = 0x944
                    0x0946                  PTGQUE11 = 0x946
                    0x0946                  _PTGQUE11 = 0x946
                    0x0946                  _PTGQUE11bits = 0x946
                    0x0948                  PTGQUE12 = 0x948
                    0x0948                  _PTGQUE12 = 0x948
                    0x0948                  _PTGQUE12bits = 0x948
                    0x094a                  PTGQUE13 = 0x94a
                    0x094a                  _PTGQUE13 = 0x94a
                    0x094a                  _PTGQUE13bits = 0x94a
                    0x094c                  PTGQUE14 = 0x94c
                    0x094c                  _PTGQUE14 = 0x94c
                    0x094c                  _PTGQUE14bits = 0x94c
                    0x094e                  PTGQUE15 = 0x94e
                    0x094e                  _PTGQUE15 = 0x94e
                    0x094e                  _PTGQUE15bits = 0x94e
                    0x0950                  CCP1CON1L = 0x950
                    0x0950                  _CCP1CON1L = 0x950
                    0x0950                  _CCP1CON1Lbits = 0x950
                    0x0952                  CCP1CON1H = 0x952
                    0x0952                  _CCP1CON1H = 0x952
                    0x0952                  _CCP1CON1Hbits = 0x952
                    0x0954                  CCP1CON2L = 0x954
                    0x0954                  _CCP1CON2L = 0x954
                    0x0954                  _CCP1CON2Lbits = 0x954
                    0x0956                  CCP1CON2H = 0x956
                    0x0956                  _CCP1CON2H = 0x956
                    0x0956                  _CCP1CON2Hbits = 0x956
                    0x095a                  CCP1CON3H = 0x95a
                    0x095a                  _CCP1CON3H = 0x95a
                    0x095a                  _CCP1CON3Hbits = 0x95a
                    0x095c                  CCP1STAT = 0x95c
                    0x095c                  _CCP1STAT = 0x95c
                    0x095c                  _CCP1STATbits = 0x95c
                    0x095c                  CCP1STATL = 0x95c
                    0x095c                  _CCP1STATL = 0x95c
                    0x095c                  _CCP1STATLbits = 0x95c
                    0x0960                  CCP1TMRL = 0x960
                    0x0960                  _CCP1TMRL = 0x960
                    0x0962                  CCP1TMRH = 0x962
                    0x0962                  _CCP1TMRH = 0x962
                    0x0964                  CCP1PRL = 0x964
                    0x0964                  _CCP1PRL = 0x964
                    0x0966                  CCP1PRH = 0x966
                    0x0966                  _CCP1PRH = 0x966
                    0x0968                  CCP1RA = 0x968
                    0x0968                  _CCP1RA = 0x968
                    0x0968                  CCP1RAL = 0x968
                    0x0968                  _CCP1RAL = 0x968
                    0x096c                  CCP1RB = 0x96c
                    0x096c                  _CCP1RB = 0x96c
                    0x096c                  CCP1RBL = 0x96c
                    0x096c                  _CCP1RBL = 0x96c
                    0x0970                  CCP1BUFL = 0x970
                    0x0970                  _CCP1BUFL = 0x970
                    0x0972                  CCP1BUFH = 0x972
                    0x0972                  _CCP1BUFH = 0x972
                    0x0974                  CCP2CON1L = 0x974
                    0x0974                  _CCP2CON1L = 0x974
                    0x0974                  _CCP2CON1Lbits = 0x974
                    0x0976                  CCP2CON1H = 0x976
                    0x0976                  _CCP2CON1H = 0x976
                    0x0976                  _CCP2CON1Hbits = 0x976
                    0x0978                  CCP2CON2L = 0x978
                    0x0978                  _CCP2CON2L = 0x978
                    0x0978                  _CCP2CON2Lbits = 0x978
                    0x097a                  CCP2CON2H = 0x97a
                    0x097a                  _CCP2CON2H = 0x97a
                    0x097a                  _CCP2CON2Hbits = 0x97a
                    0x097e                  CCP2CON3H = 0x97e
                    0x097e                  _CCP2CON3H = 0x97e
                    0x097e                  _CCP2CON3Hbits = 0x97e
                    0x0980                  CCP2STAT = 0x980
                    0x0980                  _CCP2STAT = 0x980
                    0x0980                  _CCP2STATbits = 0x980
                    0x0980                  CCP2STATL = 0x980
                    0x0980                  _CCP2STATL = 0x980
                    0x0980                  _CCP2STATLbits = 0x980
                    0x0984                  CCP2TMRL = 0x984
                    0x0984                  _CCP2TMRL = 0x984
                    0x0986                  CCP2TMRH = 0x986
                    0x0986                  _CCP2TMRH = 0x986
                    0x0988                  CCP2PRL = 0x988
                    0x0988                  _CCP2PRL = 0x988
                    0x098a                  CCP2PRH = 0x98a
                    0x098a                  _CCP2PRH = 0x98a
                    0x098c                  CCP2RA = 0x98c
                    0x098c                  _CCP2RA = 0x98c
                    0x098c                  CCP2RAL = 0x98c
                    0x098c                  _CCP2RAL = 0x98c
                    0x0990                  CCP2RB = 0x990
                    0x0990                  _CCP2RB = 0x990
                    0x0990                  CCP2RBL = 0x990
                    0x0990                  _CCP2RBL = 0x990
                    0x0994                  CCP2BUFL = 0x994
                    0x0994                  _CCP2BUFL = 0x994
                    0x0996                  CCP2BUFH = 0x996
                    0x0996                  _CCP2BUFH = 0x996
                    0x0998                  CCP3CON1L = 0x998
                    0x0998                  _CCP3CON1L = 0x998
                    0x0998                  _CCP3CON1Lbits = 0x998
                    0x099a                  CCP3CON1H = 0x99a
                    0x099a                  _CCP3CON1H = 0x99a
                    0x099a                  _CCP3CON1Hbits = 0x99a
                    0x099c                  CCP3CON2L = 0x99c
                    0x099c                  _CCP3CON2L = 0x99c
                    0x099c                  _CCP3CON2Lbits = 0x99c
                    0x099e                  CCP3CON2H = 0x99e
                    0x099e                  _CCP3CON2H = 0x99e
                    0x099e                  _CCP3CON2Hbits = 0x99e
                    0x09a2                  CCP3CON3H = 0x9a2
                    0x09a2                  _CCP3CON3H = 0x9a2
                    0x09a2                  _CCP3CON3Hbits = 0x9a2
                    0x09a4                  CCP3STAT = 0x9a4
                    0x09a4                  _CCP3STAT = 0x9a4
                    0x09a4                  _CCP3STATbits = 0x9a4
                    0x09a4                  CCP3STATL = 0x9a4
                    0x09a4                  _CCP3STATL = 0x9a4
                    0x09a4                  _CCP3STATLbits = 0x9a4
                    0x09a8                  CCP3TMRL = 0x9a8
                    0x09a8                  _CCP3TMRL = 0x9a8
                    0x09aa                  CCP3TMRH = 0x9aa
                    0x09aa                  _CCP3TMRH = 0x9aa
                    0x09ac                  CCP3PRL = 0x9ac
                    0x09ac                  _CCP3PRL = 0x9ac
                    0x09ae                  CCP3PRH = 0x9ae
                    0x09ae                  _CCP3PRH = 0x9ae
                    0x09b0                  CCP3RA = 0x9b0
                    0x09b0                  _CCP3RA = 0x9b0
                    0x09b0                  CCP3RAL = 0x9b0
                    0x09b0                  _CCP3RAL = 0x9b0
                    0x09b4                  CCP3RB = 0x9b4
                    0x09b4                  _CCP3RB = 0x9b4
                    0x09b4                  CCP3RBL = 0x9b4
                    0x09b4                  _CCP3RBL = 0x9b4
                    0x09b8                  CCP3BUFL = 0x9b8
                    0x09b8                  _CCP3BUFL = 0x9b8
                    0x09ba                  CCP3BUFH = 0x9ba
                    0x09ba                  _CCP3BUFH = 0x9ba
                    0x09bc                  CCP4CON1L = 0x9bc
                    0x09bc                  _CCP4CON1L = 0x9bc
                    0x09bc                  _CCP4CON1Lbits = 0x9bc
                    0x09be                  CCP4CON1H = 0x9be
                    0x09be                  _CCP4CON1H = 0x9be
                    0x09be                  _CCP4CON1Hbits = 0x9be
                    0x09c0                  CCP4CON2L = 0x9c0
                    0x09c0                  _CCP4CON2L = 0x9c0
                    0x09c0                  _CCP4CON2Lbits = 0x9c0
                    0x09c2                  CCP4CON2H = 0x9c2
                    0x09c2                  _CCP4CON2H = 0x9c2
                    0x09c2                  _CCP4CON2Hbits = 0x9c2
                    0x09c6                  CCP4CON3H = 0x9c6
                    0x09c6                  _CCP4CON3H = 0x9c6
                    0x09c6                  _CCP4CON3Hbits = 0x9c6
                    0x09c8                  CCP4STAT = 0x9c8
                    0x09c8                  _CCP4STAT = 0x9c8
                    0x09c8                  _CCP4STATbits = 0x9c8
                    0x09c8                  CCP4STATL = 0x9c8
                    0x09c8                  _CCP4STATL = 0x9c8
                    0x09c8                  _CCP4STATLbits = 0x9c8
                    0x09cc                  CCP4TMRL = 0x9cc
                    0x09cc                  _CCP4TMRL = 0x9cc
                    0x09ce                  CCP4TMRH = 0x9ce
                    0x09ce                  _CCP4TMRH = 0x9ce
                    0x09d0                  CCP4PRL = 0x9d0
                    0x09d0                  _CCP4PRL = 0x9d0
                    0x09d2                  CCP4PRH = 0x9d2
                    0x09d2                  _CCP4PRH = 0x9d2
                    0x09d4                  CCP4RA = 0x9d4
                    0x09d4                  _CCP4RA = 0x9d4
                    0x09d4                  CCP4RAL = 0x9d4
                    0x09d4                  _CCP4RAL = 0x9d4
                    0x09d8                  CCP4RB = 0x9d8
                    0x09d8                  _CCP4RB = 0x9d8
                    0x09d8                  CCP4RBL = 0x9d8
                    0x09d8                  _CCP4RBL = 0x9d8
                    0x09dc                  CCP4BUFL = 0x9dc
                    0x09dc                  _CCP4BUFL = 0x9dc
                    0x09de                  CCP4BUFH = 0x9de
                    0x09de                  _CCP4BUFH = 0x9de
                    0x09e0                  CCP5CON1L = 0x9e0
                    0x09e0                  _CCP5CON1L = 0x9e0
                    0x09e0                  _CCP5CON1Lbits = 0x9e0
                    0x09e2                  CCP5CON1H = 0x9e2
                    0x09e2                  _CCP5CON1H = 0x9e2
                    0x09e2                  _CCP5CON1Hbits = 0x9e2
                    0x09e4                  CCP5CON2L = 0x9e4
                    0x09e4                  _CCP5CON2L = 0x9e4
                    0x09e4                  _CCP5CON2Lbits = 0x9e4
                    0x09e6                  CCP5CON2H = 0x9e6
                    0x09e6                  _CCP5CON2H = 0x9e6
                    0x09e6                  _CCP5CON2Hbits = 0x9e6
                    0x09ea                  CCP5CON3H = 0x9ea
                    0x09ea                  _CCP5CON3H = 0x9ea
                    0x09ea                  _CCP5CON3Hbits = 0x9ea
                    0x09ec                  CCP5STAT = 0x9ec
                    0x09ec                  _CCP5STAT = 0x9ec
                    0x09ec                  _CCP5STATbits = 0x9ec
                    0x09ec                  CCP5STATL = 0x9ec
                    0x09ec                  _CCP5STATL = 0x9ec
                    0x09ec                  _CCP5STATLbits = 0x9ec
                    0x09f0                  CCP5TMRL = 0x9f0
                    0x09f0                  _CCP5TMRL = 0x9f0
                    0x09f2                  CCP5TMRH = 0x9f2
                    0x09f2                  _CCP5TMRH = 0x9f2
                    0x09f4                  CCP5PRL = 0x9f4
                    0x09f4                  _CCP5PRL = 0x9f4
                    0x09f6                  CCP5PRH = 0x9f6
                    0x09f6                  _CCP5PRH = 0x9f6
                    0x09f8                  CCP5RA = 0x9f8
                    0x09f8                  _CCP5RA = 0x9f8
                    0x09f8                  CCP5RAL = 0x9f8
                    0x09f8                  _CCP5RAL = 0x9f8
                    0x09fc                  CCP5RB = 0x9fc
                    0x09fc                  _CCP5RB = 0x9fc
                    0x09fc                  CCP5RBL = 0x9fc
                    0x09fc                  _CCP5RBL = 0x9fc
                    0x0a00                  CCP5BUFL = 0xa00
                    0x0a00                  _CCP5BUFL = 0xa00
                    0x0a02                  CCP5BUFH = 0xa02
                    0x0a02                  _CCP5BUFH = 0xa02
                    0x0a04                  CCP6CON1L = 0xa04
                    0x0a04                  _CCP6CON1L = 0xa04
                    0x0a04                  _CCP6CON1Lbits = 0xa04
                    0x0a06                  CCP6CON1H = 0xa06
                    0x0a06                  _CCP6CON1H = 0xa06
                    0x0a06                  _CCP6CON1Hbits = 0xa06
                    0x0a08                  CCP6CON2L = 0xa08
                    0x0a08                  _CCP6CON2L = 0xa08
                    0x0a08                  _CCP6CON2Lbits = 0xa08
                    0x0a0a                  CCP6CON2H = 0xa0a
                    0x0a0a                  _CCP6CON2H = 0xa0a
                    0x0a0a                  _CCP6CON2Hbits = 0xa0a
                    0x0a0e                  CCP6CON3H = 0xa0e
                    0x0a0e                  _CCP6CON3H = 0xa0e
                    0x0a0e                  _CCP6CON3Hbits = 0xa0e
                    0x0a10                  CCP6STAT = 0xa10
                    0x0a10                  _CCP6STAT = 0xa10
                    0x0a10                  _CCP6STATbits = 0xa10
                    0x0a10                  CCP6STATL = 0xa10
                    0x0a10                  _CCP6STATL = 0xa10
                    0x0a10                  _CCP6STATLbits = 0xa10
                    0x0a14                  CCP6TMRL = 0xa14
                    0x0a14                  _CCP6TMRL = 0xa14
                    0x0a16                  CCP6TMRH = 0xa16
                    0x0a16                  _CCP6TMRH = 0xa16
                    0x0a18                  CCP6PRL = 0xa18
                    0x0a18                  _CCP6PRL = 0xa18
                    0x0a1a                  CCP6PRH = 0xa1a
                    0x0a1a                  _CCP6PRH = 0xa1a
                    0x0a1c                  CCP6RA = 0xa1c
                    0x0a1c                  _CCP6RA = 0xa1c
                    0x0a1c                  CCP6RAL = 0xa1c
                    0x0a1c                  _CCP6RAL = 0xa1c
                    0x0a20                  CCP6RB = 0xa20
                    0x0a20                  _CCP6RB = 0xa20
                    0x0a20                  CCP6RBL = 0xa20
                    0x0a20                  _CCP6RBL = 0xa20
                    0x0a24                  CCP6BUFL = 0xa24
                    0x0a24                  _CCP6BUFL = 0xa24
                    0x0a26                  CCP6BUFH = 0xa26
                    0x0a26                  _CCP6BUFH = 0xa26
                    0x0a28                  CCP7CON1L = 0xa28
                    0x0a28                  _CCP7CON1L = 0xa28
                    0x0a28                  _CCP7CON1Lbits = 0xa28
                    0x0a2a                  CCP7CON1H = 0xa2a
                    0x0a2a                  _CCP7CON1H = 0xa2a
                    0x0a2a                  _CCP7CON1Hbits = 0xa2a
                    0x0a2c                  CCP7CON2L = 0xa2c
                    0x0a2c                  _CCP7CON2L = 0xa2c
                    0x0a2c                  _CCP7CON2Lbits = 0xa2c
                    0x0a2e                  CCP7CON2H = 0xa2e
                    0x0a2e                  _CCP7CON2H = 0xa2e
                    0x0a2e                  _CCP7CON2Hbits = 0xa2e
                    0x0a32                  CCP7CON3H = 0xa32
                    0x0a32                  _CCP7CON3H = 0xa32
                    0x0a32                  _CCP7CON3Hbits = 0xa32
                    0x0a34                  CCP7STAT = 0xa34
                    0x0a34                  _CCP7STAT = 0xa34
                    0x0a34                  _CCP7STATbits = 0xa34
                    0x0a34                  CCP7STATL = 0xa34
                    0x0a34                  _CCP7STATL = 0xa34
                    0x0a34                  _CCP7STATLbits = 0xa34
                    0x0a38                  CCP7TMRL = 0xa38
                    0x0a38                  _CCP7TMRL = 0xa38
                    0x0a3a                  CCP7TMRH = 0xa3a
                    0x0a3a                  _CCP7TMRH = 0xa3a
                    0x0a3c                  CCP7PRL = 0xa3c
                    0x0a3c                  _CCP7PRL = 0xa3c
                    0x0a3e                  CCP7PRH = 0xa3e
                    0x0a3e                  _CCP7PRH = 0xa3e
                    0x0a40                  CCP7RA = 0xa40
                    0x0a40                  _CCP7RA = 0xa40
                    0x0a40                  CCP7RAL = 0xa40
                    0x0a40                  _CCP7RAL = 0xa40
                    0x0a44                  CCP7RB = 0xa44
                    0x0a44                  _CCP7RB = 0xa44
                    0x0a44                  CCP7RBL = 0xa44
                    0x0a44                  _CCP7RBL = 0xa44
                    0x0a48                  CCP7BUFL = 0xa48
                    0x0a48                  _CCP7BUFL = 0xa48
                    0x0a4a                  CCP7BUFH = 0xa4a
                    0x0a4a                  _CCP7BUFH = 0xa4a
                    0x0a4c                  CCP8CON1L = 0xa4c
                    0x0a4c                  _CCP8CON1L = 0xa4c
                    0x0a4c                  _CCP8CON1Lbits = 0xa4c
                    0x0a4e                  CCP8CON1H = 0xa4e
                    0x0a4e                  _CCP8CON1H = 0xa4e
                    0x0a4e                  _CCP8CON1Hbits = 0xa4e
                    0x0a50                  CCP8CON2L = 0xa50
                    0x0a50                  _CCP8CON2L = 0xa50
                    0x0a50                  _CCP8CON2Lbits = 0xa50
                    0x0a52                  CCP8CON2H = 0xa52
                    0x0a52                  _CCP8CON2H = 0xa52
                    0x0a52                  _CCP8CON2Hbits = 0xa52
                    0x0a56                  CCP8CON3H = 0xa56
                    0x0a56                  _CCP8CON3H = 0xa56
                    0x0a56                  _CCP8CON3Hbits = 0xa56
                    0x0a58                  CCP8STAT = 0xa58
                    0x0a58                  _CCP8STAT = 0xa58
                    0x0a58                  _CCP8STATbits = 0xa58
                    0x0a58                  CCP8STATL = 0xa58
                    0x0a58                  _CCP8STATL = 0xa58
                    0x0a58                  _CCP8STATLbits = 0xa58
                    0x0a5c                  CCP8TMRL = 0xa5c
                    0x0a5c                  _CCP8TMRL = 0xa5c
                    0x0a5e                  CCP8TMRH = 0xa5e
                    0x0a5e                  _CCP8TMRH = 0xa5e
                    0x0a60                  CCP8PRL = 0xa60
                    0x0a60                  _CCP8PRL = 0xa60
                    0x0a62                  CCP8PRH = 0xa62
                    0x0a62                  _CCP8PRH = 0xa62
                    0x0a64                  CCP8RA = 0xa64
                    0x0a64                  _CCP8RA = 0xa64
                    0x0a64                  CCP8RAL = 0xa64
                    0x0a64                  _CCP8RAL = 0xa64
                    0x0a68                  CCP8RB = 0xa68
                    0x0a68                  _CCP8RB = 0xa68
                    0x0a68                  CCP8RBL = 0xa68
                    0x0a68                  _CCP8RBL = 0xa68
                    0x0a6c                  CCP8BUFL = 0xa6c
                    0x0a6c                  _CCP8BUFL = 0xa6c
                    0x0a6e                  CCP8BUFH = 0xa6e
                    0x0a6e                  _CCP8BUFH = 0xa6e
                    0x0a70                  CCP9CON1L = 0xa70
                    0x0a70                  _CCP9CON1L = 0xa70
                    0x0a70                  _CCP9CON1Lbits = 0xa70
                    0x0a72                  CCP9CON1H = 0xa72
                    0x0a72                  _CCP9CON1H = 0xa72
                    0x0a72                  _CCP9CON1Hbits = 0xa72
                    0x0a74                  CCP9CON2L = 0xa74
                    0x0a74                  _CCP9CON2L = 0xa74
                    0x0a74                  _CCP9CON2Lbits = 0xa74
                    0x0a76                  CCP9CON2H = 0xa76
                    0x0a76                  _CCP9CON2H = 0xa76
                    0x0a76                  _CCP9CON2Hbits = 0xa76
                    0x0a78                  CCP9CON3L = 0xa78
                    0x0a78                  _CCP9CON3L = 0xa78
                    0x0a78                  _CCP9CON3Lbits = 0xa78
                    0x0a7a                  CCP9CON3H = 0xa7a
                    0x0a7a                  _CCP9CON3H = 0xa7a
                    0x0a7a                  _CCP9CON3Hbits = 0xa7a
                    0x0a7c                  CCP9STAT = 0xa7c
                    0x0a7c                  _CCP9STAT = 0xa7c
                    0x0a7c                  _CCP9STATbits = 0xa7c
                    0x0a7c                  CCP9STATL = 0xa7c
                    0x0a7c                  _CCP9STATL = 0xa7c
                    0x0a7c                  _CCP9STATLbits = 0xa7c
                    0x0a80                  CCP9TMRL = 0xa80
                    0x0a80                  _CCP9TMRL = 0xa80
                    0x0a82                  CCP9TMRH = 0xa82
                    0x0a82                  _CCP9TMRH = 0xa82
                    0x0a84                  CCP9PRL = 0xa84
                    0x0a84                  _CCP9PRL = 0xa84
                    0x0a86                  CCP9PRH = 0xa86
                    0x0a86                  _CCP9PRH = 0xa86
                    0x0a88                  CCP9RA = 0xa88
                    0x0a88                  _CCP9RA = 0xa88
                    0x0a88                  CCP9RAL = 0xa88
                    0x0a88                  _CCP9RAL = 0xa88
                    0x0a8c                  CCP9RB = 0xa8c
                    0x0a8c                  _CCP9RB = 0xa8c
                    0x0a8c                  CCP9RBL = 0xa8c
                    0x0a8c                  _CCP9RBL = 0xa8c
                    0x0a90                  CCP9BUFL = 0xa90
                    0x0a90                  _CCP9BUFL = 0xa90
                    0x0a92                  CCP9BUFH = 0xa92
                    0x0a92                  _CCP9BUFH = 0xa92
                    0x0abc                  DMACON = 0xabc
                    0x0abc                  _DMACON = 0xabc
                    0x0abc                  _DMACONbits = 0xabc
                    0x0abe                  DMABUF = 0xabe
                    0x0abe                  _DMABUF = 0xabe
                    0x0ac0                  DMAL = 0xac0
                    0x0ac0                  _DMAL = 0xac0
                    0x0ac2                  DMAH = 0xac2
                    0x0ac2                  _DMAH = 0xac2
                    0x0ac4                  DMACH0 = 0xac4
                    0x0ac4                  _DMACH0 = 0xac4
                    0x0ac4                  _DMACH0bits = 0xac4
                    0x0ac6                  DMAINT0 = 0xac6
                    0x0ac6                  _DMAINT0 = 0xac6
                    0x0ac6                  _DMAINT0bits = 0xac6
                    0x0ac8                  DMASRC0 = 0xac8
                    0x0ac8                  _DMASRC0 = 0xac8
                    0x0aca                  DMADST0 = 0xaca
                    0x0aca                  _DMADST0 = 0xaca
                    0x0acc                  DMACNT0 = 0xacc
                    0x0acc                  _DMACNT0 = 0xacc
                    0x0ace                  DMACH1 = 0xace
                    0x0ace                  _DMACH1 = 0xace
                    0x0ace                  _DMACH1bits = 0xace
                    0x0ad0                  DMAINT1 = 0xad0
                    0x0ad0                  _DMAINT1 = 0xad0
                    0x0ad0                  _DMAINT1bits = 0xad0
                    0x0ad2                  DMASRC1 = 0xad2
                    0x0ad2                  _DMASRC1 = 0xad2
                    0x0ad4                  DMADST1 = 0xad4
                    0x0ad4                  _DMADST1 = 0xad4
                    0x0ad6                  DMACNT1 = 0xad6
                    0x0ad6                  _DMACNT1 = 0xad6
                    0x0ad8                  DMACH2 = 0xad8
                    0x0ad8                  _DMACH2 = 0xad8
                    0x0ad8                  _DMACH2bits = 0xad8
                    0x0ada                  DMAINT2 = 0xada
                    0x0ada                  _DMAINT2 = 0xada
                    0x0ada                  _DMAINT2bits = 0xada
                    0x0adc                  DMASRC2 = 0xadc
                    0x0adc                  _DMASRC2 = 0xadc
                    0x0ade                  DMADST2 = 0xade
                    0x0ade                  _DMADST2 = 0xade
                    0x0ae0                  DMACNT2 = 0xae0
                    0x0ae0                  _DMACNT2 = 0xae0
                    0x0ae2                  DMACH3 = 0xae2
                    0x0ae2                  _DMACH3 = 0xae2
                    0x0ae2                  _DMACH3bits = 0xae2
                    0x0ae4                  DMAINT3 = 0xae4
                    0x0ae4                  _DMAINT3 = 0xae4
                    0x0ae4                  _DMAINT3bits = 0xae4
                    0x0ae6                  DMASRC3 = 0xae6
                    0x0ae6                  _DMASRC3 = 0xae6
                    0x0ae8                  DMADST3 = 0xae8
                    0x0ae8                  _DMADST3 = 0xae8
                    0x0aea                  DMACNT3 = 0xaea
                    0x0aea                  _DMACNT3 = 0xaea
                    0x0b00                  ADCON1L = 0xb00
                    0x0b00                  _ADCON1L = 0xb00
                    0x0b00                  _ADCON1Lbits = 0xb00
                    0x0b02                  ADCON1H = 0xb02
                    0x0b02                  _ADCON1H = 0xb02
                    0x0b02                  _ADCON1Hbits = 0xb02
                    0x0b04                  ADCON2L = 0xb04
                    0x0b04                  _ADCON2L = 0xb04
                    0x0b04                  _ADCON2Lbits = 0xb04
                    0x0b06                  ADCON2H = 0xb06
                    0x0b06                  _ADCON2H = 0xb06
                    0x0b06                  _ADCON2Hbits = 0xb06
                    0x0b08                  ADCON3L = 0xb08
                    0x0b08                  _ADCON3L = 0xb08
                    0x0b08                  _ADCON3Lbits = 0xb08
                    0x0b0a                  ADCON3H = 0xb0a
                    0x0b0a                  _ADCON3H = 0xb0a
                    0x0b0a                  _ADCON3Hbits = 0xb0a
                    0x0b0c                  ADCON4L = 0xb0c
                    0x0b0c                  _ADCON4L = 0xb0c
                    0x0b0c                  _ADCON4Lbits = 0xb0c
                    0x0b0e                  ADCON4H = 0xb0e
                    0x0b0e                  _ADCON4H = 0xb0e
                    0x0b0e                  _ADCON4Hbits = 0xb0e
                    0x0b10                  ADMOD0L = 0xb10
                    0x0b10                  _ADMOD0L = 0xb10
                    0x0b10                  _ADMOD0Lbits = 0xb10
                    0x0b12                  ADMOD0H = 0xb12
                    0x0b12                  _ADMOD0H = 0xb12
                    0x0b12                  _ADMOD0Hbits = 0xb12
                    0x0b14                  ADMOD1L = 0xb14
                    0x0b14                  _ADMOD1L = 0xb14
                    0x0b14                  _ADMOD1Lbits = 0xb14
                    0x0b16                  ADMOD1H = 0xb16
                    0x0b16                  _ADMOD1H = 0xb16
                    0x0b16                  _ADMOD1Hbits = 0xb16
                    0x0b20                  ADIEL = 0xb20
                    0x0b20                  _ADIEL = 0xb20
                    0x0b20                  _ADIELbits = 0xb20
                    0x0b22                  ADIEH = 0xb22
                    0x0b22                  _ADIEH = 0xb22
                    0x0b22                  _ADIEHbits = 0xb22
                    0x0b30                  ADSTATL = 0xb30
                    0x0b30                  _ADSTATL = 0xb30
                    0x0b30                  _ADSTATLbits = 0xb30
                    0x0b32                  ADSTATH = 0xb32
                    0x0b32                  _ADSTATH = 0xb32
                    0x0b32                  _ADSTATHbits = 0xb32
                    0x0b38                  ADCMP0ENL = 0xb38
                    0x0b38                  _ADCMP0ENL = 0xb38
                    0x0b38                  _ADCMP0ENLbits = 0xb38
                    0x0b3a                  ADCMP0ENH = 0xb3a
                    0x0b3a                  _ADCMP0ENH = 0xb3a
                    0x0b3a                  _ADCMP0ENHbits = 0xb3a
                    0x0b3c                  ADCMP0LO = 0xb3c
                    0x0b3c                  _ADCMP0LO = 0xb3c
                    0x0b3e                  ADCMP0HI = 0xb3e
                    0x0b3e                  _ADCMP0HI = 0xb3e
                    0x0b40                  ADCMP1ENL = 0xb40
                    0x0b40                  _ADCMP1ENL = 0xb40
                    0x0b40                  _ADCMP1ENLbits = 0xb40
                    0x0b42                  ADCMP1ENH = 0xb42
                    0x0b42                  _ADCMP1ENH = 0xb42
                    0x0b42                  _ADCMP1ENHbits = 0xb42
                    0x0b44                  ADCMP1LO = 0xb44
                    0x0b44                  _ADCMP1LO = 0xb44
                    0x0b46                  ADCMP1HI = 0xb46
                    0x0b46                  _ADCMP1HI = 0xb46
                    0x0b48                  ADCMP2ENL = 0xb48
                    0x0b48                  _ADCMP2ENL = 0xb48
                    0x0b48                  _ADCMP2ENLbits = 0xb48
                    0x0b4a                  ADCMP2ENH = 0xb4a
                    0x0b4a                  _ADCMP2ENH = 0xb4a
                    0x0b4a                  _ADCMP2ENHbits = 0xb4a
                    0x0b4c                  ADCMP2LO = 0xb4c
                    0x0b4c                  _ADCMP2LO = 0xb4c
                    0x0b4e                  ADCMP2HI = 0xb4e
                    0x0b4e                  _ADCMP2HI = 0xb4e
                    0x0b50                  ADCMP3ENL = 0xb50
                    0x0b50                  _ADCMP3ENL = 0xb50
                    0x0b50                  _ADCMP3ENLbits = 0xb50
                    0x0b52                  ADCMP3ENH = 0xb52
                    0x0b52                  _ADCMP3ENH = 0xb52
                    0x0b52                  _ADCMP3ENHbits = 0xb52
                    0x0b54                  ADCMP3LO = 0xb54
                    0x0b54                  _ADCMP3LO = 0xb54
                    0x0b56                  ADCMP3HI = 0xb56
                    0x0b56                  _ADCMP3HI = 0xb56
                    0x0b68                  ADFL0DAT = 0xb68
                    0x0b68                  _ADFL0DAT = 0xb68
                    0x0b6a                  ADFL0CON = 0xb6a
                    0x0b6a                  _ADFL0CON = 0xb6a
                    0x0b6a                  _ADFL0CONbits = 0xb6a
                    0x0b6c                  ADFL1DAT = 0xb6c
                    0x0b6c                  _ADFL1DAT = 0xb6c
                    0x0b6e                  ADFL1CON = 0xb6e
                    0x0b6e                  _ADFL1CON = 0xb6e
                    0x0b6e                  _ADFL1CONbits = 0xb6e
                    0x0b70                  ADFL2DAT = 0xb70
                    0x0b70                  _ADFL2DAT = 0xb70
                    0x0b72                  ADFL2CON = 0xb72
                    0x0b72                  _ADFL2CON = 0xb72
                    0x0b72                  _ADFL2CONbits = 0xb72
                    0x0b74                  ADFL3DAT = 0xb74
                    0x0b74                  _ADFL3DAT = 0xb74
                    0x0b76                  ADFL3CON = 0xb76
                    0x0b76                  _ADFL3CON = 0xb76
                    0x0b76                  _ADFL3CONbits = 0xb76
                    0x0b80                  ADTRIG0L = 0xb80
                    0x0b80                  _ADTRIG0L = 0xb80
                    0x0b80                  _ADTRIG0Lbits = 0xb80
                    0x0b82                  ADTRIG0H = 0xb82
                    0x0b82                  _ADTRIG0H = 0xb82
                    0x0b82                  _ADTRIG0Hbits = 0xb82
                    0x0b84                  ADTRIG1L = 0xb84
                    0x0b84                  _ADTRIG1L = 0xb84
                    0x0b84                  _ADTRIG1Lbits = 0xb84
                    0x0b86                  ADTRIG1H = 0xb86
                    0x0b86                  _ADTRIG1H = 0xb86
                    0x0b86                  _ADTRIG1Hbits = 0xb86
                    0x0b88                  ADTRIG2L = 0xb88
                    0x0b88                  _ADTRIG2L = 0xb88
                    0x0b88                  _ADTRIG2Lbits = 0xb88
                    0x0b8a                  ADTRIG2H = 0xb8a
                    0x0b8a                  _ADTRIG2H = 0xb8a
                    0x0b8a                  _ADTRIG2Hbits = 0xb8a
                    0x0b8c                  ADTRIG3L = 0xb8c
                    0x0b8c                  _ADTRIG3L = 0xb8c
                    0x0b8c                  _ADTRIG3Lbits = 0xb8c
                    0x0b8e                  ADTRIG3H = 0xb8e
                    0x0b8e                  _ADTRIG3H = 0xb8e
                    0x0b8e                  _ADTRIG3Hbits = 0xb8e
                    0x0b90                  ADTRIG4L = 0xb90
                    0x0b90                  _ADTRIG4L = 0xb90
                    0x0b90                  _ADTRIG4Lbits = 0xb90
                    0x0b92                  ADTRIG4H = 0xb92
                    0x0b92                  _ADTRIG4H = 0xb92
                    0x0b92                  _ADTRIG4Hbits = 0xb92
                    0x0b98                  ADTRIG6L = 0xb98
                    0x0b98                  _ADTRIG6L = 0xb98
                    0x0b98                  _ADTRIG6Lbits = 0xb98
                    0x0ba0                  ADCMP0CON = 0xba0
                    0x0ba0                  _ADCMP0CON = 0xba0
                    0x0ba0                  _ADCMP0CONbits = 0xba0
                    0x0ba4                  ADCMP1CON = 0xba4
                    0x0ba4                  _ADCMP1CON = 0xba4
                    0x0ba4                  _ADCMP1CONbits = 0xba4
                    0x0ba8                  ADCMP2CON = 0xba8
                    0x0ba8                  _ADCMP2CON = 0xba8
                    0x0ba8                  _ADCMP2CONbits = 0xba8
                    0x0bac                  ADCMP3CON = 0xbac
                    0x0bac                  _ADCMP3CON = 0xbac
                    0x0bac                  _ADCMP3CONbits = 0xbac
                    0x0bd0                  ADLVLTRGL = 0xbd0
                    0x0bd0                  _ADLVLTRGL = 0xbd0
                    0x0bd0                  _ADLVLTRGLbits = 0xbd0
                    0x0bd2                  ADLVLTRGH = 0xbd2
                    0x0bd2                  _ADLVLTRGH = 0xbd2
                    0x0bd2                  _ADLVLTRGHbits = 0xbd2
                    0x0bd4                  ADCORE0L = 0xbd4
                    0x0bd4                  _ADCORE0L = 0xbd4
                    0x0bd4                  _ADCORE0Lbits = 0xbd4
                    0x0bd6                  ADCORE0H = 0xbd6
                    0x0bd6                  _ADCORE0H = 0xbd6
                    0x0bd6                  _ADCORE0Hbits = 0xbd6
                    0x0bd8                  ADCORE1L = 0xbd8
                    0x0bd8                  _ADCORE1L = 0xbd8
                    0x0bd8                  _ADCORE1Lbits = 0xbd8
                    0x0bda                  ADCORE1H = 0xbda
                    0x0bda                  _ADCORE1H = 0xbda
                    0x0bda                  _ADCORE1Hbits = 0xbda
                    0x0bf0                  ADEIEL = 0xbf0
                    0x0bf0                  _ADEIEL = 0xbf0
                    0x0bf0                  _ADEIELbits = 0xbf0
                    0x0bf2                  ADEIEH = 0xbf2
                    0x0bf2                  _ADEIEH = 0xbf2
                    0x0bf2                  _ADEIEHbits = 0xbf2
                    0x0bf8                  ADEISTATL = 0xbf8
                    0x0bf8                  _ADEISTATL = 0xbf8
                    0x0bf8                  _ADEISTATLbits = 0xbf8
                    0x0bfa                  ADEISTATH = 0xbfa
                    0x0bfa                  _ADEISTATH = 0xbfa
                    0x0bfa                  _ADEISTATHbits = 0xbfa
                    0x0c00                  ADCON5L = 0xc00
                    0x0c00                  _ADCON5L = 0xc00
                    0x0c00                  _ADCON5Lbits = 0xc00
                    0x0c02                  ADCON5H = 0xc02
                    0x0c02                  _ADCON5H = 0xc02
                    0x0c02                  _ADCON5Hbits = 0xc02
                    0x0c0c                  ADCBUF0 = 0xc0c
                    0x0c0c                  _ADCBUF0 = 0xc0c
                    0x0c0e                  ADCBUF1 = 0xc0e
                    0x0c0e                  _ADCBUF1 = 0xc0e
                    0x0c10                  ADCBUF2 = 0xc10
                    0x0c10                  _ADCBUF2 = 0xc10
                    0x0c12                  ADCBUF3 = 0xc12
                    0x0c12                  _ADCBUF3 = 0xc12
                    0x0c14                  ADCBUF4 = 0xc14
                    0x0c14                  _ADCBUF4 = 0xc14
                    0x0c16                  ADCBUF5 = 0xc16
                    0x0c16                  _ADCBUF5 = 0xc16
                    0x0c18                  ADCBUF6 = 0xc18
                    0x0c18                  _ADCBUF6 = 0xc18
                    0x0c1a                  ADCBUF7 = 0xc1a
                    0x0c1a                  _ADCBUF7 = 0xc1a
                    0x0c1c                  ADCBUF8 = 0xc1c
                    0x0c1c                  _ADCBUF8 = 0xc1c
                    0x0c1e                  ADCBUF9 = 0xc1e
                    0x0c1e                  _ADCBUF9 = 0xc1e
                    0x0c20                  ADCBUF10 = 0xc20
                    0x0c20                  _ADCBUF10 = 0xc20
                    0x0c22                  ADCBUF11 = 0xc22
                    0x0c22                  _ADCBUF11 = 0xc22
                    0x0c24                  ADCBUF12 = 0xc24
                    0x0c24                  _ADCBUF12 = 0xc24
                    0x0c26                  ADCBUF13 = 0xc26
                    0x0c26                  _ADCBUF13 = 0xc26
                    0x0c28                  ADCBUF14 = 0xc28
                    0x0c28                  _ADCBUF14 = 0xc28
                    0x0c2a                  ADCBUF15 = 0xc2a
                    0x0c2a                  _ADCBUF15 = 0xc2a
                    0x0c2c                  ADCBUF16 = 0xc2c
                    0x0c2c                  _ADCBUF16 = 0xc2c
                    0x0c2e                  ADCBUF17 = 0xc2e
                    0x0c2e                  _ADCBUF17 = 0xc2e
                    0x0c30                  ADCBUF18 = 0xc30
                    0x0c30                  _ADCBUF18 = 0xc30
                    0x0c3c                  ADCBUF24 = 0xc3c
                    0x0c3c                  _ADCBUF24 = 0xc3c
                    0x0c3e                  ADCBUF25 = 0xc3e
                    0x0c3e                  _ADCBUF25 = 0xc3e
                    0x0c80                  DACCTRL1L = 0xc80
                    0x0c80                  _DACCTRL1L = 0xc80
                    0x0c80                  _DACCTRL1Lbits = 0xc80
                    0x0c84                  DACCTRL2L = 0xc84
                    0x0c84                  _DACCTRL2L = 0xc84
                    0x0c84                  _DACCTRL2Lbits = 0xc84
                    0x0c86                  DACCTRL2H = 0xc86
                    0x0c86                  _DACCTRL2H = 0xc86
                    0x0c86                  _DACCTRL2Hbits = 0xc86
                    0x0c88                  DAC1CONL = 0xc88
                    0x0c88                  _DAC1CONL = 0xc88
                    0x0c88                  _DAC1CONLbits = 0xc88
                    0x0c8a                  DAC1CONH = 0xc8a
                    0x0c8a                  _DAC1CONH = 0xc8a
                    0x0c8a                  _DAC1CONHbits = 0xc8a
                    0x0c8c                  DAC1DATL = 0xc8c
                    0x0c8c                  _DAC1DATL = 0xc8c
                    0x0c8c                  _DAC1DATLbits = 0xc8c
                    0x0c8e                  DAC1DATH = 0xc8e
                    0x0c8e                  _DAC1DATH = 0xc8e
                    0x0c8e                  _DAC1DATHbits = 0xc8e
                    0x0c90                  SLP1CONL = 0xc90
                    0x0c90                  _SLP1CONL = 0xc90
                    0x0c90                  _SLP1CONLbits = 0xc90
                    0x0c92                  SLP1CONH = 0xc92
                    0x0c92                  _SLP1CONH = 0xc92
                    0x0c92                  _SLP1CONHbits = 0xc92
                    0x0c94                  SLP1DAT = 0xc94
                    0x0c94                  _SLP1DAT = 0xc94
                    0x0c94                  _SLP1DATbits = 0xc94
                    0x0c98                  DAC2CONL = 0xc98
                    0x0c98                  _DAC2CONL = 0xc98
                    0x0c98                  _DAC2CONLbits = 0xc98
                    0x0c9a                  DAC2CONH = 0xc9a
                    0x0c9a                  _DAC2CONH = 0xc9a
                    0x0c9a                  _DAC2CONHbits = 0xc9a
                    0x0c9c                  DAC2DATL = 0xc9c
                    0x0c9c                  _DAC2DATL = 0xc9c
                    0x0c9c                  _DAC2DATLbits = 0xc9c
                    0x0c9e                  DAC2DATH = 0xc9e
                    0x0c9e                  _DAC2DATH = 0xc9e
                    0x0c9e                  _DAC2DATHbits = 0xc9e
                    0x0ca0                  SLP2CONL = 0xca0
                    0x0ca0                  _SLP2CONL = 0xca0
                    0x0ca0                  _SLP2CONLbits = 0xca0
                    0x0ca2                  SLP2CONH = 0xca2
                    0x0ca2                  _SLP2CONH = 0xca2
                    0x0ca2                  _SLP2CONHbits = 0xca2
                    0x0ca4                  SLP2DAT = 0xca4
                    0x0ca4                  _SLP2DAT = 0xca4
                    0x0ca4                  _SLP2DATbits = 0xca4
                    0x0ca8                  DAC3CONL = 0xca8
                    0x0ca8                  _DAC3CONL = 0xca8
                    0x0ca8                  _DAC3CONLbits = 0xca8
                    0x0caa                  DAC3CONH = 0xcaa
                    0x0caa                  _DAC3CONH = 0xcaa
                    0x0caa                  _DAC3CONHbits = 0xcaa
                    0x0cac                  DAC3DATL = 0xcac
                    0x0cac                  _DAC3DATL = 0xcac
                    0x0cac                  _DAC3DATLbits = 0xcac
                    0x0cae                  DAC3DATH = 0xcae
                    0x0cae                  _DAC3DATH = 0xcae
                    0x0cae                  _DAC3DATHbits = 0xcae
                    0x0cb0                  SLP3CONL = 0xcb0
                    0x0cb0                  _SLP3CONL = 0xcb0
                    0x0cb0                  _SLP3CONLbits = 0xcb0
                    0x0cb2                  SLP3CONH = 0xcb2
                    0x0cb2                  _SLP3CONH = 0xcb2
                    0x0cb2                  _SLP3CONHbits = 0xcb2
                    0x0cb4                  SLP3DAT = 0xcb4
                    0x0cb4                  _SLP3DAT = 0xcb4
                    0x0cb4                  _SLP3DATbits = 0xcb4
                    0x0cfc                  VREGCON = 0xcfc
                    0x0cfc                  _VREGCON = 0xcfc
                    0x0cfc                  _VREGCONbits = 0xcfc
                    0x0d00                  RPCON = 0xd00
                    0x0d00                  _RPCON = 0xd00
                    0x0d00                  _RPCONbits = 0xd00
                    0x0d04                  RPINR0 = 0xd04
                    0x0d04                  _RPINR0 = 0xd04
                    0x0d04                  _RPINR0bits = 0xd04
                    0x0d06                  RPINR1 = 0xd06
                    0x0d06                  _RPINR1 = 0xd06
                    0x0d06                  _RPINR1bits = 0xd06
                    0x0d08                  RPINR2 = 0xd08
                    0x0d08                  _RPINR2 = 0xd08
                    0x0d08                  _RPINR2bits = 0xd08
                    0x0d0a                  RPINR3 = 0xd0a
                    0x0d0a                  _RPINR3 = 0xd0a
                    0x0d0a                  _RPINR3bits = 0xd0a
                    0x0d0c                  RPINR4 = 0xd0c
                    0x0d0c                  _RPINR4 = 0xd0c
                    0x0d0c                  _RPINR4bits = 0xd0c
                    0x0d0e                  RPINR5 = 0xd0e
                    0x0d0e                  _RPINR5 = 0xd0e
                    0x0d0e                  _RPINR5bits = 0xd0e
                    0x0d10                  RPINR6 = 0xd10
                    0x0d10                  _RPINR6 = 0xd10
                    0x0d10                  _RPINR6bits = 0xd10
                    0x0d12                  RPINR7 = 0xd12
                    0x0d12                  _RPINR7 = 0xd12
                    0x0d12                  _RPINR7bits = 0xd12
                    0x0d14                  RPINR8 = 0xd14
                    0x0d14                  _RPINR8 = 0xd14
                    0x0d14                  _RPINR8bits = 0xd14
                    0x0d16                  RPINR9 = 0xd16
                    0x0d16                  _RPINR9 = 0xd16
                    0x0d16                  _RPINR9bits = 0xd16
                    0x0d18                  RPINR10 = 0xd18
                    0x0d18                  _RPINR10 = 0xd18
                    0x0d18                  _RPINR10bits = 0xd18
                    0x0d1a                  RPINR11 = 0xd1a
                    0x0d1a                  _RPINR11 = 0xd1a
                    0x0d1a                  _RPINR11bits = 0xd1a
                    0x0d1c                  RPINR12 = 0xd1c
                    0x0d1c                  _RPINR12 = 0xd1c
                    0x0d1c                  _RPINR12bits = 0xd1c
                    0x0d1e                  RPINR13 = 0xd1e
                    0x0d1e                  _RPINR13 = 0xd1e
                    0x0d1e                  _RPINR13bits = 0xd1e
                    0x0d20                  RPINR14 = 0xd20
                    0x0d20                  _RPINR14 = 0xd20
                    0x0d20                  _RPINR14bits = 0xd20
                    0x0d22                  RPINR15 = 0xd22
                    0x0d22                  _RPINR15 = 0xd22
                    0x0d22                  _RPINR15bits = 0xd22
                    0x0d24                  RPINR16 = 0xd24
                    0x0d24                  _RPINR16 = 0xd24
                    0x0d24                  _RPINR16bits = 0xd24
                    0x0d26                  RPINR17 = 0xd26
                    0x0d26                  _RPINR17 = 0xd26
                    0x0d26                  _RPINR17bits = 0xd26
                    0x0d28                  RPINR18 = 0xd28
                    0x0d28                  _RPINR18 = 0xd28
                    0x0d28                  _RPINR18bits = 0xd28
                    0x0d2a                  RPINR19 = 0xd2a
                    0x0d2a                  _RPINR19 = 0xd2a
                    0x0d2a                  _RPINR19bits = 0xd2a
                    0x0d2c                  RPINR20 = 0xd2c
                    0x0d2c                  _RPINR20 = 0xd2c
                    0x0d2c                  _RPINR20bits = 0xd2c
                    0x0d2e                  RPINR21 = 0xd2e
                    0x0d2e                  _RPINR21 = 0xd2e
                    0x0d2e                  _RPINR21bits = 0xd2e
                    0x0d30                  RPINR22 = 0xd30
                    0x0d30                  _RPINR22 = 0xd30
                    0x0d30                  _RPINR22bits = 0xd30
                    0x0d32                  RPINR23 = 0xd32
                    0x0d32                  _RPINR23 = 0xd32
                    0x0d32                  _RPINR23bits = 0xd32
                    0x0d38                  RPINR26 = 0xd38
                    0x0d38                  _RPINR26 = 0xd38
                    0x0d38                  _RPINR26bits = 0xd38
                    0x0d3a                  RPINR27 = 0xd3a
                    0x0d3a                  _RPINR27 = 0xd3a
                    0x0d3a                  _RPINR27bits = 0xd3a
                    0x0d3e                  RPINR29 = 0xd3e
                    0x0d3e                  _RPINR29 = 0xd3e
                    0x0d3e                  _RPINR29bits = 0xd3e
                    0x0d40                  RPINR30 = 0xd40
                    0x0d40                  _RPINR30 = 0xd40
                    0x0d40                  _RPINR30bits = 0xd40
                    0x0d44                  RPINR32 = 0xd44
                    0x0d44                  _RPINR32 = 0xd44
                    0x0d44                  _RPINR32bits = 0xd44
                    0x0d46                  RPINR33 = 0xd46
                    0x0d46                  _RPINR33 = 0xd46
                    0x0d46                  _RPINR33bits = 0xd46
                    0x0d4e                  RPINR37 = 0xd4e
                    0x0d4e                  _RPINR37 = 0xd4e
                    0x0d4e                  _RPINR37bits = 0xd4e
                    0x0d50                  RPINR38 = 0xd50
                    0x0d50                  _RPINR38 = 0xd50
                    0x0d50                  _RPINR38bits = 0xd50
                    0x0d58                  RPINR42 = 0xd58
                    0x0d58                  _RPINR42 = 0xd58
                    0x0d58                  _RPINR42bits = 0xd58
                    0x0d5a                  RPINR43 = 0xd5a
                    0x0d5a                  _RPINR43 = 0xd5a
                    0x0d5a                  _RPINR43bits = 0xd5a
                    0x0d5c                  RPINR44 = 0xd5c
                    0x0d5c                  _RPINR44 = 0xd5c
                    0x0d5c                  _RPINR44bits = 0xd5c
                    0x0d5e                  RPINR45 = 0xd5e
                    0x0d5e                  _RPINR45 = 0xd5e
                    0x0d5e                  _RPINR45bits = 0xd5e
                    0x0d60                  RPINR46 = 0xd60
                    0x0d60                  _RPINR46 = 0xd60
                    0x0d60                  _RPINR46bits = 0xd60
                    0x0d62                  RPINR47 = 0xd62
                    0x0d62                  _RPINR47 = 0xd62
                    0x0d62                  _RPINR47bits = 0xd62
                    0x0d64                  RPINR48 = 0xd64
                    0x0d64                  _RPINR48 = 0xd64
                    0x0d64                  _RPINR48bits = 0xd64
                    0x0d66                  RPINR49 = 0xd66
                    0x0d66                  _RPINR49 = 0xd66
                    0x0d66                  _RPINR49bits = 0xd66
                    0x0d80                  RPOR0 = 0xd80
                    0x0d80                  _RPOR0 = 0xd80
                    0x0d80                  _RPOR0bits = 0xd80
                    0x0d82                  RPOR1 = 0xd82
                    0x0d82                  _RPOR1 = 0xd82
                    0x0d82                  _RPOR1bits = 0xd82
                    0x0d84                  RPOR2 = 0xd84
                    0x0d84                  _RPOR2 = 0xd84
                    0x0d84                  _RPOR2bits = 0xd84
                    0x0d86                  RPOR3 = 0xd86
                    0x0d86                  _RPOR3 = 0xd86
                    0x0d86                  _RPOR3bits = 0xd86
                    0x0d88                  RPOR4 = 0xd88
                    0x0d88                  _RPOR4 = 0xd88
                    0x0d88                  _RPOR4bits = 0xd88
                    0x0d8a                  RPOR5 = 0xd8a
                    0x0d8a                  _RPOR5 = 0xd8a
                    0x0d8a                  _RPOR5bits = 0xd8a
                    0x0d8c                  RPOR6 = 0xd8c
                    0x0d8c                  _RPOR6 = 0xd8c
                    0x0d8c                  _RPOR6bits = 0xd8c
                    0x0d8e                  RPOR7 = 0xd8e
                    0x0d8e                  _RPOR7 = 0xd8e
                    0x0d8e                  _RPOR7bits = 0xd8e
                    0x0d90                  RPOR8 = 0xd90
                    0x0d90                  _RPOR8 = 0xd90
                    0x0d90                  _RPOR8bits = 0xd90
                    0x0d92                  RPOR9 = 0xd92
                    0x0d92                  _RPOR9 = 0xd92
                    0x0d92                  _RPOR9bits = 0xd92
                    0x0d94                  RPOR10 = 0xd94
                    0x0d94                  _RPOR10 = 0xd94
                    0x0d94                  _RPOR10bits = 0xd94
                    0x0d96                  RPOR11 = 0xd96
                    0x0d96                  _RPOR11 = 0xd96
                    0x0d96                  _RPOR11bits = 0xd96
                    0x0d98                  RPOR12 = 0xd98
                    0x0d98                  _RPOR12 = 0xd98
                    0x0d98                  _RPOR12bits = 0xd98
                    0x0d9a                  RPOR13 = 0xd9a
                    0x0d9a                  _RPOR13 = 0xd9a
                    0x0d9a                  _RPOR13bits = 0xd9a
                    0x0d9c                  RPOR14 = 0xd9c
                    0x0d9c                  _RPOR14 = 0xd9c
                    0x0d9c                  _RPOR14bits = 0xd9c
                    0x0da0                  RPOR16 = 0xda0
                    0x0da0                  _RPOR16 = 0xda0
                    0x0da0                  _RPOR16bits = 0xda0
                    0x0da8                  RPOR20 = 0xda8
                    0x0da8                  _RPOR20 = 0xda8
                    0x0da8                  _RPOR20bits = 0xda8
                    0x0daa                  RPOR21 = 0xdaa
                    0x0daa                  _RPOR21 = 0xdaa
                    0x0daa                  _RPOR21bits = 0xdaa
                    0x0dac                  RPOR22 = 0xdac
                    0x0dac                  _RPOR22 = 0xdac
                    0x0dac                  _RPOR22bits = 0xdac
                    0x0db0                  RPOR24 = 0xdb0
                    0x0db0                  _RPOR24 = 0xdb0
                    0x0db0                  _RPOR24bits = 0xdb0
                    0x0db2                  RPOR25 = 0xdb2
                    0x0db2                  _RPOR25 = 0xdb2
                    0x0db2                  _RPOR25bits = 0xdb2
                    0x0db4                  RPOR26 = 0xdb4
                    0x0db4                  _RPOR26 = 0xdb4
                    0x0db4                  _RPOR26bits = 0xdb4
                    0x0e00                  ANSELA = 0xe00
                    0x0e00                  _ANSELA = 0xe00
                    0x0e00                  _ANSELAbits = 0xe00
                    0x0e02                  TRISA = 0xe02
                    0x0e02                  _TRISA = 0xe02
                    0x0e02                  _TRISAbits = 0xe02
                    0x0e04                  PORTA = 0xe04
                    0x0e04                  _PORTA = 0xe04
                    0x0e04                  _PORTAbits = 0xe04
                    0x0e06                  LATA = 0xe06
                    0x0e06                  _LATA = 0xe06
                    0x0e06                  _LATAbits = 0xe06
                    0x0e08                  ODCA = 0xe08
                    0x0e08                  _ODCA = 0xe08
                    0x0e08                  _ODCAbits = 0xe08
                    0x0e0a                  CNPUA = 0xe0a
                    0x0e0a                  _CNPUA = 0xe0a
                    0x0e0a                  _CNPUAbits = 0xe0a
                    0x0e0c                  CNPDA = 0xe0c
                    0x0e0c                  _CNPDA = 0xe0c
                    0x0e0c                  _CNPDAbits = 0xe0c
                    0x0e0e                  CNCONA = 0xe0e
                    0x0e0e                  _CNCONA = 0xe0e
                    0x0e0e                  _CNCONAbits = 0xe0e
                    0x0e10                  CNEN0A = 0xe10
                    0x0e10                  _CNEN0A = 0xe10
                    0x0e10                  _CNEN0Abits = 0xe10
                    0x0e12                  CNSTATA = 0xe12
                    0x0e12                  _CNSTATA = 0xe12
                    0x0e12                  _CNSTATAbits = 0xe12
                    0x0e14                  CNEN1A = 0xe14
                    0x0e14                  _CNEN1A = 0xe14
                    0x0e14                  _CNEN1Abits = 0xe14
                    0x0e16                  CNFA = 0xe16
                    0x0e16                  _CNFA = 0xe16
                    0x0e16                  _CNFAbits = 0xe16
                    0x0e1c                  ANSELB = 0xe1c
                    0x0e1c                  _ANSELB = 0xe1c
                    0x0e1c                  _ANSELBbits = 0xe1c
                    0x0e1e                  TRISB = 0xe1e
                    0x0e1e                  _TRISB = 0xe1e
                    0x0e1e                  _TRISBbits = 0xe1e
                    0x0e20                  PORTB = 0xe20
                    0x0e20                  _PORTB = 0xe20
                    0x0e20                  _PORTBbits = 0xe20
                    0x0e22                  LATB = 0xe22
                    0x0e22                  _LATB = 0xe22
                    0x0e22                  _LATBbits = 0xe22
                    0x0e24                  ODCB = 0xe24
                    0x0e24                  _ODCB = 0xe24
                    0x0e24                  _ODCBbits = 0xe24
                    0x0e26                  CNPUB = 0xe26
                    0x0e26                  _CNPUB = 0xe26
                    0x0e26                  _CNPUBbits = 0xe26
                    0x0e28                  CNPDB = 0xe28
                    0x0e28                  _CNPDB = 0xe28
                    0x0e28                  _CNPDBbits = 0xe28
                    0x0e2a                  CNCONB = 0xe2a
                    0x0e2a                  _CNCONB = 0xe2a
                    0x0e2a                  _CNCONBbits = 0xe2a
                    0x0e2c                  CNEN0B = 0xe2c
                    0x0e2c                  _CNEN0B = 0xe2c
                    0x0e2c                  _CNEN0Bbits = 0xe2c
                    0x0e2e                  CNSTATB = 0xe2e
                    0x0e2e                  _CNSTATB = 0xe2e
                    0x0e2e                  _CNSTATBbits = 0xe2e
                    0x0e30                  CNEN1B = 0xe30
                    0x0e30                  _CNEN1B = 0xe30
                    0x0e30                  _CNEN1Bbits = 0xe30
                    0x0e32                  CNFB = 0xe32
                    0x0e32                  _CNFB = 0xe32
                    0x0e32                  _CNFBbits = 0xe32
                    0x0e38                  ANSELC = 0xe38
                    0x0e38                  _ANSELC = 0xe38
                    0x0e38                  _ANSELCbits = 0xe38
                    0x0e3a                  TRISC = 0xe3a
                    0x0e3a                  _TRISC = 0xe3a
                    0x0e3a                  _TRISCbits = 0xe3a
                    0x0e3c                  PORTC = 0xe3c
                    0x0e3c                  _PORTC = 0xe3c
                    0x0e3c                  _PORTCbits = 0xe3c
                    0x0e3e                  LATC = 0xe3e
                    0x0e3e                  _LATC = 0xe3e
                    0x0e3e                  _LATCbits = 0xe3e
                    0x0e40                  ODCC = 0xe40
                    0x0e40                  _ODCC = 0xe40
                    0x0e40                  _ODCCbits = 0xe40
                    0x0e42                  CNPUC = 0xe42
                    0x0e42                  _CNPUC = 0xe42
                    0x0e42                  _CNPUCbits = 0xe42
                    0x0e44                  CNPDC = 0xe44
                    0x0e44                  _CNPDC = 0xe44
                    0x0e44                  _CNPDCbits = 0xe44
                    0x0e46                  CNCONC = 0xe46
                    0x0e46                  _CNCONC = 0xe46
                    0x0e46                  _CNCONCbits = 0xe46
                    0x0e48                  CNEN0C = 0xe48
                    0x0e48                  _CNEN0C = 0xe48
                    0x0e48                  _CNEN0Cbits = 0xe48
                    0x0e4a                  CNSTATC = 0xe4a
                    0x0e4a                  _CNSTATC = 0xe4a
                    0x0e4a                  _CNSTATCbits = 0xe4a
                    0x0e4c                  CNEN1C = 0xe4c
                    0x0e4c                  _CNEN1C = 0xe4c
                    0x0e4c                  _CNEN1Cbits = 0xe4c
                    0x0e4e                  CNFC = 0xe4e
                    0x0e4e                  _CNFC = 0xe4e
                    0x0e4e                  _CNFCbits = 0xe4e
                    0x0e54                  ANSELD = 0xe54
                    0x0e54                  _ANSELD = 0xe54
                    0x0e54                  _ANSELDbits = 0xe54
                    0x0e56                  TRISD = 0xe56
                    0x0e56                  _TRISD = 0xe56
                    0x0e56                  _TRISDbits = 0xe56
                    0x0e58                  PORTD = 0xe58
                    0x0e58                  _PORTD = 0xe58
                    0x0e58                  _PORTDbits = 0xe58
                    0x0e5a                  LATD = 0xe5a
                    0x0e5a                  _LATD = 0xe5a
                    0x0e5a                  _LATDbits = 0xe5a
                    0x0e5c                  ODCD = 0xe5c
                    0x0e5c                  _ODCD = 0xe5c
                    0x0e5c                  _ODCDbits = 0xe5c
                    0x0e5e                  CNPUD = 0xe5e
                    0x0e5e                  _CNPUD = 0xe5e
                    0x0e5e                  _CNPUDbits = 0xe5e
                    0x0e60                  CNPDD = 0xe60
                    0x0e60                  _CNPDD = 0xe60
                    0x0e60                  _CNPDDbits = 0xe60
                    0x0e62                  CNCOND = 0xe62
                    0x0e62                  _CNCOND = 0xe62
                    0x0e62                  _CNCONDbits = 0xe62
                    0x0e64                  CNEN0D = 0xe64
                    0x0e64                  _CNEN0D = 0xe64
                    0x0e64                  _CNEN0Dbits = 0xe64
                    0x0e66                  CNSTATD = 0xe66
                    0x0e66                  _CNSTATD = 0xe66
                    0x0e66                  _CNSTATDbits = 0xe66
                    0x0e68                  CNEN1D = 0xe68
                    0x0e68                  _CNEN1D = 0xe68
                    0x0e68                  _CNEN1Dbits = 0xe68
                    0x0e6a                  CNFD = 0xe6a
                    0x0e6a                  _CNFD = 0xe6a
                    0x0e6a                  _CNFDbits = 0xe6a
                    0x0efc                  MBISTCON = 0xefc
                    0x0efc                  _MBISTCON = 0xefc
                    0x0efc                  _MBISTCONbits = 0xefc
                    0x0f00                  U3MODE = 0xf00
                    0x0f00                  _U3MODE = 0xf00
                    0x0f00                  _U3MODEbits = 0xf00
                    0x0f02                  U3MODEH = 0xf02
                    0x0f02                  _U3MODEH = 0xf02
                    0x0f02                  _U3MODEHbits = 0xf02
                    0x0f04                  U3STA = 0xf04
                    0x0f04                  _U3STA = 0xf04
                    0x0f04                  _U3STAbits = 0xf04
                    0x0f06                  U3STAH = 0xf06
                    0x0f06                  _U3STAH = 0xf06
                    0x0f06                  _U3STAHbits = 0xf06
                    0x0f08                  U3BRG = 0xf08
                    0x0f08                  _U3BRG = 0xf08
                    0x0f08                  _U3BRGbits = 0xf08
                    0x0f0a                  U3BRGH = 0xf0a
                    0x0f0a                  _U3BRGH = 0xf0a
                    0x0f0a                  _U3BRGHbits = 0xf0a
                    0x0f0c                  U3RXREG = 0xf0c
                    0x0f0c                  _U3RXREG = 0xf0c
                    0x0f0c                  _U3RXREGbits = 0xf0c
                    0x0f10                  U3TXREG = 0xf10
                    0x0f10                  _U3TXREG = 0xf10
                    0x0f10                  _U3TXREGbits = 0xf10
                    0x0f14                  U3P1 = 0xf14
                    0x0f14                  _U3P1 = 0xf14
                    0x0f14                  _U3P1bits = 0xf14
                    0x0f16                  U3P2 = 0xf16
                    0x0f16                  _U3P2 = 0xf16
                    0x0f16                  _U3P2bits = 0xf16
                    0x0f18                  U3P3 = 0xf18
                    0x0f18                  _U3P3 = 0xf18
                    0x0f18                  _U3P3bits = 0xf18
                    0x0f1a                  U3P3H = 0xf1a
                    0x0f1a                  _U3P3H = 0xf1a
                    0x0f1a                  _U3P3Hbits = 0xf1a
                    0x0f1c                  U3TXCHK = 0xf1c
                    0x0f1c                  _U3TXCHK = 0xf1c
                    0x0f1c                  _U3TXCHKbits = 0xf1c
                    0x0f1e                  U3RXCHK = 0xf1e
                    0x0f1e                  _U3RXCHK = 0xf1e
                    0x0f1e                  _U3RXCHKbits = 0xf1e
                    0x0f20                  U3SCCON = 0xf20
                    0x0f20                  _U3SCCON = 0xf20
                    0x0f20                  _U3SCCONbits = 0xf20
                    0x0f22                  U3SCINT = 0xf22
                    0x0f22                  _U3SCINT = 0xf22
                    0x0f22                  _U3SCINTbits = 0xf22
                    0x0f24                  U3INT = 0xf24
                    0x0f24                  _U3INT = 0xf24
                    0x0f24                  _U3INTbits = 0xf24
                    0x0f5c                  I2C3CON1 = 0xf5c
                    0x0f5c                  _I2C3CON1 = 0xf5c
                    0x0f5c                  _I2C3CON1bits = 0xf5c
                    0x0f5c                  I2C3CONL = 0xf5c
                    0x0f5c                  _I2C3CONL = 0xf5c
                    0x0f5c                  _I2C3CONLbits = 0xf5c
                    0x0f5e                  I2C3CON2 = 0xf5e
                    0x0f5e                  _I2C3CON2 = 0xf5e
                    0x0f5e                  _I2C3CON2bits = 0xf5e
                    0x0f5e                  I2C3CONH = 0xf5e
                    0x0f5e                  _I2C3CONH = 0xf5e
                    0x0f5e                  _I2C3CONHbits = 0xf5e
                    0x0f60                  I2C3STAT = 0xf60
                    0x0f60                  _I2C3STAT = 0xf60
                    0x0f60                  _I2C3STATbits = 0xf60
                    0x0f64                  I2C3ADD = 0xf64
                    0x0f64                  _I2C3ADD = 0xf64
                    0x0f64                  _I2C3ADDbits = 0xf64
                    0x0f68                  I2C3MSK = 0xf68
                    0x0f68                  _I2C3MSK = 0xf68
                    0x0f68                  _I2C3MSKbits = 0xf68
                    0x0f6c                  I2C3BRG = 0xf6c
                    0x0f6c                  _I2C3BRG = 0xf6c
                    0x0f70                  I2C3TRN = 0xf70
                    0x0f70                  _I2C3TRN = 0xf70
                    0x0f70                  _I2C3TRNbits = 0xf70
                    0x0f74                  I2C3RCV = 0xf74
                    0x0f74                  _I2C3RCV = 0xf74
                    0x0f74                  _I2C3RCVbits = 0xf74
                    0x0f80                  RCON = 0xf80
                    0x0f80                  _RCON = 0xf80
                    0x0f80                  _RCONbits = 0xf80
                    0x0f84                  OSCCON = 0xf84
                    0x0f84                  _OSCCON = 0xf84
                    0x0f84                  _OSCCONbits = 0xf84
                    0x0f84                  OSCCONL = 0xf84
                    0x0f84                  _OSCCONL = 0xf84
                    0x0f85                  OSCCONH = 0xf85
                    0x0f85                  _OSCCONH = 0xf85
                    0x0f86                  CLKDIV = 0xf86
                    0x0f86                  _CLKDIV = 0xf86
                    0x0f86                  _CLKDIVbits = 0xf86
                    0x0f88                  PLLFBD = 0xf88
                    0x0f88                  _PLLFBD = 0xf88
                    0x0f88                  _PLLFBDbits = 0xf88
                    0x0f8a                  PLLDIV = 0xf8a
                    0x0f8a                  _PLLDIV = 0xf8a
                    0x0f8a                  _PLLDIVbits = 0xf8a
                    0x0f8c                  OSCTUN = 0xf8c
                    0x0f8c                  _OSCTUN = 0xf8c
                    0x0f8c                  _OSCTUNbits = 0xf8c
                    0x0f8e                  ACLKCON1 = 0xf8e
                    0x0f8e                  _ACLKCON1 = 0xf8e
                    0x0f8e                  _ACLKCON1bits = 0xf8e
                    0x0f90                  APLLFBD1 = 0xf90
                    0x0f90                  _APLLFBD1 = 0xf90
                    0x0f90                  _APLLFBD1bits = 0xf90
                    0x0f92                  APLLDIV1 = 0xf92
                    0x0f92                  _APLLDIV1 = 0xf92
                    0x0f92                  _APLLDIV1bits = 0xf92
                    0x0f9a                  CANCLKCON = 0xf9a
                    0x0f9a                  _CANCLKCON = 0xf9a
                    0x0f9a                  _CANCLKCONbits = 0xf9a
                    0x0f9c                  DCOTUN = 0xf9c
                    0x0f9c                  _DCOTUN = 0xf9c
                    0x0f9c                  _DCOTUNbits = 0xf9c
                    0x0f9e                  DCOCON = 0xf9e
                    0x0f9e                  _DCOCON = 0xf9e
                    0x0f9e                  _DCOCONbits = 0xf9e
                    0x0fa0                  PMDCON = 0xfa0
                    0x0fa0                  _PMDCON = 0xfa0
                    0x0fa0                  _PMDCONbits = 0xfa0
                    0x0fa4                  PMD1 = 0xfa4
                    0x0fa4                  _PMD1 = 0xfa4
                    0x0fa4                  _PMD1bits = 0xfa4
                    0x0fa6                  PMD2 = 0xfa6
                    0x0fa6                  _PMD2 = 0xfa6
                    0x0fa6                  _PMD2bits = 0xfa6
                    0x0fa8                  PMD3 = 0xfa8
                    0x0fa8                  _PMD3 = 0xfa8
                    0x0fa8                  _PMD3bits = 0xfa8
                    0x0faa                  PMD4 = 0xfaa
                    0x0faa                  _PMD4 = 0xfaa
                    0x0faa                  _PMD4bits = 0xfaa
                    0x0fae                  PMD6 = 0xfae
                    0x0fae                  _PMD6 = 0xfae
                    0x0fae                  _PMD6bits = 0xfae
                    0x0fb0                  PMD7 = 0xfb0
                    0x0fb0                  _PMD7 = 0xfb0
                    0x0fb0                  _PMD7bits = 0xfb0
                    0x0fb2                  PMD8 = 0xfb2
                    0x0fb2                  _PMD8 = 0xfb2
                    0x0fb2                  _PMD8bits = 0xfb2
                    0x0fb4                  WDTCONL = 0xfb4
                    0x0fb4                  _WDTCONL = 0xfb4
                    0x0fb4                  _WDTCONLbits = 0xfb4
                    0x0fb6                  WDTCONH = 0xfb6
                    0x0fb6                  _WDTCONH = 0xfb6
                    0x0fb8                  REFOCON1 = 0xfb8
                    0x0fb8                  _REFOCON1 = 0xfb8
                    0x0fb8                  _REFOCON1bits = 0xfb8
                    0x0fb8                  REFOCONL = 0xfb8
                    0x0fb8                  _REFOCONL = 0xfb8
                    0x0fb8                  _REFOCONLbits = 0xfb8
                    0x0fba                  REFOCON2 = 0xfba
                    0x0fba                  _REFOCON2 = 0xfba
                    0x0fba                  _REFOCON2bits = 0xfba
                    0x0fba                  REFOCONH = 0xfba
                    0x0fba                  _REFOCONH = 0xfba
                    0x0fba                  _REFOCONHbits = 0xfba
                    0x0fbe                  REFOTRIMH = 0xfbe
                    0x0fbe                  _REFOTRIMH = 0xfbe
                    0x0fbe                  _REFOTRIMHbits = 0xfbe
                    0x0fc0                  PCTRAPL = 0xfc0
                    0x0fc0                  _PCTRAPL = 0xfc0
                    0x0fc2                  PCTRAPH = 0xfc2
                    0x0fc2                  _PCTRAPH = 0xfc2
                    0x0fc2                  _PCTRAPHbits = 0xfc2
                    0x0fc4                  FEXL = 0xfc4
                    0x0fc4                  _FEXL = 0xfc4
                    0x0fc6                  FEXH = 0xfc6
                    0x0fc6                  _FEXH = 0xfc6
                    0x0fc6                  _FEXHbits = 0xfc6
                    0x0fc8                  FEX2L = 0xfc8
                    0x0fc8                  _FEX2L = 0xfc8
                    0x0fca                  FEX2H = 0xfca
                    0x0fca                  _FEX2H = 0xfca
                    0x0fca                  _FEX2Hbits = 0xfca
                    0x0fcc                  VISI = 0xfcc
                    0x0fcc                  _VISI = 0xfcc
                    0x0fce                  DPCL = 0xfce
                    0x0fce                  _DPCL = 0xfce
                    0x0fd0                  DPCH = 0xfd0
                    0x0fd0                  _DPCH = 0xfd0
                    0x0fd0                  _DPCHbits = 0xfd0
                    0x0fd2                  APPO = 0xfd2
                    0x0fd2                  _APPO = 0xfd2
                    0x0fd4                  APPI = 0xfd4
                    0x0fd4                  _APPI = 0xfd4
                    0x0fd6                  APPS = 0xfd6
                    0x0fd6                  _APPS = 0xfd6
                    0x0fd6                  _APPSbits = 0xfd6
                    0x0fd8                  STROUTL = 0xfd8
                    0x0fd8                  _STROUTL = 0xfd8
                    0x0fda                  STROUTH = 0xfda
                    0x0fda                  _STROUTH = 0xfda
                    0x0fdc                  STROVCNT = 0xfdc
                    0x0fdc                  _STROVCNT = 0xfdc
                    0x0ffa                  JDATAL = 0xffa
                    0x0ffa                  _JDATAL = 0xffa
                    0x0ffc                  JDATAH = 0xffc
                    0x0ffc                  _JDATAH = 0xffc
                    0x0022                  ACCA = 0x22
                    0x0022                  _ACCA = 0x22
                    0x0028                  ACCB = 0x28
                    0x0028                  _ACCB = 0x28
                    0x0238                  UART1 = 0x238
                    0x0238                  _UART1 = 0x238
                    0x0260                  UART2 = 0x260
                    0x0260                  _UART2 = 0x260
START GROUP
LOAD c:/program files (x86)/microchip/xc16/v1.41/bin/bin/../../lib\liblega-pic30-elf.a
LOAD c:/program files (x86)/microchip/xc16/v1.41/bin/bin/../../lib\libm-elf.a
LOAD c:/program files (x86)/microchip/xc16/v1.41/bin/bin/../../lib\liblega-c-elf.a
END GROUP
OUTPUT(dist/00173_USB_PD_BOB_R21/debug/usb_pd_bob.X.debug.elf elf32-pic30)
LOAD /CW/_FSEC
LOAD jump_table
LOAD default_isr
LOAD data_init

.debug_pubtypes
                  0x000818       0x637d
 .debug_pubtypes
                  0x000818        0x290 build/00173_USB_PD_BOB_R21/debug/_ext/949971983/fdrv_FaultHandler.o
 .debug_pubtypes
                  0x000aa8         0xb6 build/00173_USB_PD_BOB_R21/debug/_ext/949971983/fdrv_TrapHandler.o
 .debug_pubtypes
                  0x000b5e        0x202 build/00173_USB_PD_BOB_R21/debug/_ext/949971983/fdrv_FaultObjects.o
 .debug_pubtypes
                  0x000d60         0x1f build/00173_USB_PD_BOB_R21/debug/_ext/949971983/os_Initialize.o
 .debug_pubtypes
                  0x000d7f        0x177 build/00173_USB_PD_BOB_R21/debug/_ext/949971983/os_Scheduler.o
 .debug_pubtypes
                  0x000ef6        0x153 build/00173_USB_PD_BOB_R21/debug/_ext/949971983/os_TaskManager.o
 .debug_pubtypes
                  0x001049         0x1f build/00173_USB_PD_BOB_R21/debug/_ext/687227054/UserStartupCode.o
 .debug_pubtypes
                  0x001068         0x73 build/00173_USB_PD_BOB_R21/debug/_ext/687227054/UserAppManager.o
 .debug_pubtypes
                  0x0010db        0x250 build/00173_USB_PD_BOB_R21/debug/_ext/687227054/UserFaultObjects.o
 .debug_pubtypes
                  0x00132b         0x1f build/00173_USB_PD_BOB_R21/debug/_ext/687227054/UserTasks.o
 .debug_pubtypes
                  0x00134a        0x83e build/00173_USB_PD_BOB_R21/debug/_ext/1515990320/smpsDebugUART.o
 .debug_pubtypes
                  0x001b88         0x82 build/00173_USB_PD_BOB_R21/debug/_ext/1515990320/smpsDebugUART_UserCID.o
 .debug_pubtypes
                  0x001c0a         0xab build/00173_USB_PD_BOB_R21/debug/_ext/92048113/debug_uart.o
 .debug_pubtypes
                  0x001cb5         0xab build/00173_USB_PD_BOB_R21/debug/_ext/2109991248/upd_timer.o
 .debug_pubtypes
                  0x001d60        0x26f build/00173_USB_PD_BOB_R21/debug/_ext/553671219/c4swbb_control.o
 .debug_pubtypes
                  0x001fcf        0xc56 build/00173_USB_PD_BOB_R21/debug/_ext/553671219/c4swbb_pconfig.o
 .debug_pubtypes
                  0x002c25         0xb2 build/00173_USB_PD_BOB_R21/debug/_ext/553671219/cha_iloop.o
 .debug_pubtypes
                  0x002cd7         0xb2 build/00173_USB_PD_BOB_R21/debug/_ext/553671219/cha_vloop.o
 .debug_pubtypes
                  0x002d89         0xb2 build/00173_USB_PD_BOB_R21/debug/_ext/553671219/chb_iloop.o
 .debug_pubtypes
                  0x002e3b         0xb2 build/00173_USB_PD_BOB_R21/debug/_ext/553671219/chb_vloop.o
 .debug_pubtypes
                  0x002eed        0x166 build/00173_USB_PD_BOB_R21/debug/_ext/1494078692/spi2.o
 .debug_pubtypes
                  0x003053         0x76 build/00173_USB_PD_BOB_R21/debug/_ext/1666088709/cfg_globals.o
 .debug_pubtypes
                  0x0030c9         0x12 build/00173_USB_PD_BOB_R21/debug/_ext/1666088709/debug.o
 .debug_pubtypes
                  0x0030db         0xdd build/00173_USB_PD_BOB_R21/debug/_ext/1666088709/generic_timer.o
 .debug_pubtypes
                  0x0031b8        0x146 build/00173_USB_PD_BOB_R21/debug/_ext/1666088709/int_globals.o
 .debug_pubtypes
                  0x0032fe         0x4a build/00173_USB_PD_BOB_R21/debug/_ext/1666088709/pd_main.o
 .debug_pubtypes
                  0x003348        0x101 build/00173_USB_PD_BOB_R21/debug/_ext/1666088709/policy_engine.o
 .debug_pubtypes
                  0x003449         0x12 build/00173_USB_PD_BOB_R21/debug/_ext/1666088709/policy_engine_fwup.o
 .debug_pubtypes
                  0x00345b         0x12 build/00173_USB_PD_BOB_R21/debug/_ext/1666088709/policy_engine_snk.o
 .debug_pubtypes
                  0x00346d         0xcc build/00173_USB_PD_BOB_R21/debug/_ext/1666088709/policy_engine_src.o
 .debug_pubtypes
                  0x003539         0xc1 build/00173_USB_PD_BOB_R21/debug/_ext/1666088709/policy_manager.o
 .debug_pubtypes
                  0x0035fa         0xfd build/00173_USB_PD_BOB_R21/debug/_ext/1666088709/protocol_layer.o
 .debug_pubtypes
                  0x0036f7         0xc1 build/00173_USB_PD_BOB_R21/debug/_ext/1666088709/typeC_control.o
 .debug_pubtypes
                  0x0037b8         0x1f build/00173_USB_PD_BOB_R21/debug/_ext/1666088709/upd_hw.o
 .debug_pubtypes
                  0x0037d7         0x1f build/00173_USB_PD_BOB_R21/debug/_ext/1666088709/upd_interrupts.o
 .debug_pubtypes
                  0x0037f6        0x30f build/00173_USB_PD_BOB_R21/debug/_ext/481295256/hook_functions.o
 .debug_pubtypes
                  0x003b05         0xa1 build/00173_USB_PD_BOB_R21/debug/_ext/481295256/thermal_power_management.o
 .debug_pubtypes
                  0x003ba6         0x1f build/00173_USB_PD_BOB_R21/debug/_ext/1838571682/task_Idle.o
 .debug_pubtypes
                  0x003bc5         0xe9 build/00173_USB_PD_BOB_R21/debug/_ext/1838571682/task_PDStack.o
 .debug_pubtypes
                  0x003cae        0x582 build/00173_USB_PD_BOB_R21/debug/_ext/1838571682/task_PowerControl.o
 .debug_pubtypes
                  0x004230        0x2af build/00173_USB_PD_BOB_R21/debug/_ext/1838571682/task_DebugUART.o
 .debug_pubtypes
                  0x0044df         0x12 build/00173_USB_PD_BOB_R21/debug/_ext/659850787/apl.o
 .debug_pubtypes
                  0x0044f1         0x12 build/00173_USB_PD_BOB_R21/debug/_ext/659857049/hal.o
 .debug_pubtypes
                  0x004503         0x12 build/00173_USB_PD_BOB_R21/debug/_ext/391766742/config_bits_P33CK.o
 .debug_pubtypes
                  0x004515         0x40 build/00173_USB_PD_BOB_R21/debug/_ext/1171588148/init_dsp.o
 .debug_pubtypes
                  0x004555         0x1f build/00173_USB_PD_BOB_R21/debug/_ext/1171588148/init_fosc.o
 .debug_pubtypes
                  0x004574         0x1f build/00173_USB_PD_BOB_R21/debug/_ext/1171588148/init_gpio.o
 .debug_pubtypes
                  0x004593        0x2d0 build/00173_USB_PD_BOB_R21/debug/_ext/1171588148/init_irq.o
 .debug_pubtypes
                  0x004863        0x144 build/00173_USB_PD_BOB_R21/debug/_ext/1171588148/init_timer.o
 .debug_pubtypes
                  0x0049a7         0x12 build/00173_USB_PD_BOB_R21/debug/_ext/1019117317/mcal.o
 .debug_pubtypes
                  0x0049b9         0x12 build/00173_USB_PD_BOB_R21/debug/_ext/659867775/sfl.o
 .debug_pubtypes
                  0x0049cb         0x12 build/00173_USB_PD_BOB_R21/debug/_ext/1360937237/main.o
 .debug_pubtypes
                  0x0049dd        0x679 ..\..\plib\p33SMPS_mcal.X\dist\__P33SMPS_CK__\debug\p33SMPS_mcal.X.a(p33SMPS_hsadc.o)
 .debug_pubtypes
                  0x005056        0x2fc ..\..\plib\p33SMPS_mcal.X\dist\__P33SMPS_CK__\debug\p33SMPS_mcal.X.a(p33SMPS_oscillator.o)
 .debug_pubtypes
                  0x005352        0x1eb ..\..\plib\p33SMPS_mcal.X\dist\__P33SMPS_CK__\debug\p33SMPS_mcal.X.a(p33SMPS_timer.o)
 .debug_pubtypes
                  0x00553d         0x59 ..\..\plib\p33SMPS_mcal.X\dist\__P33SMPS_CK__\debug\p33SMPS_mcal.X.a(p33SMPS_pmd.o)
 .debug_pubtypes
                  0x005596         0x4a ..\..\plib\p33SMPS_mcal.X\dist\__P33SMPS_CK__\debug\p33SMPS_mcal.X.a(p33SMPS_pps.o)
 .debug_pubtypes
                  0x0055e0        0x350 ..\..\plib\p33SMPS_mcal.X\dist\__P33SMPS_CK__\debug\p33SMPS_mcal.X.a(p33SMPS_irq.o)
 .debug_pubtypes
                  0x005930         0xce ..\..\plib\p33SMPS_mcal.X\dist\__P33SMPS_CK__\debug\p33SMPS_mcal.X.a(p33SMPS_gpio.o)
 .debug_pubtypes
                  0x0059fe        0x77c ..\..\plib\p33SMPS_mcal.X\dist\__P33SMPS_CK__\debug\p33SMPS_mcal.X.a(p33SMPS_uart.o)
 .debug_pubtypes
                  0x00617a        0x87f ..\..\plib\p33SMPS_mcal.X\dist\__P33SMPS_CK__\debug\p33SMPS_mcal.X.a(p33SMPS_hspwm_c.o)
 .debug_pubtypes
                  0x0069f9        0x19c ..\..\plib\p33SMPS_mcal.X\dist\__P33SMPS_CK__\debug\p33SMPS_mcal.X.a(p33SMPS_crc.o)

__c30_signature
                  0x006b95        0x210
 __c30_signature
                  0x006b95          0x6 build/00173_USB_PD_BOB_R21/debug/_ext/949971983/fdrv_FaultHandler.o
 __c30_signature
                  0x006b9b          0x6 build/00173_USB_PD_BOB_R21/debug/_ext/949971983/fdrv_TrapHandler.o
 __c30_signature
                  0x006ba1          0x6 build/00173_USB_PD_BOB_R21/debug/_ext/949971983/fdrv_FaultObjects.o
 __c30_signature
                  0x006ba7          0x6 build/00173_USB_PD_BOB_R21/debug/_ext/949971983/os_Initialize.o
 __c30_signature
                  0x006bad          0x6 build/00173_USB_PD_BOB_R21/debug/_ext/949971983/os_Scheduler.o
 __c30_signature
                  0x006bb3          0x6 build/00173_USB_PD_BOB_R21/debug/_ext/949971983/os_TaskManager.o
 __c30_signature
                  0x006bb9          0x6 build/00173_USB_PD_BOB_R21/debug/_ext/687227054/UserStartupCode.o
 __c30_signature
                  0x006bbf          0x6 build/00173_USB_PD_BOB_R21/debug/_ext/687227054/UserAppManager.o
 __c30_signature
                  0x006bc5          0x6 build/00173_USB_PD_BOB_R21/debug/_ext/687227054/UserFaultObjects.o
 __c30_signature
                  0x006bcb          0x6 build/00173_USB_PD_BOB_R21/debug/_ext/687227054/UserTasks.o
 __c30_signature
                  0x006bd1          0x6 build/00173_USB_PD_BOB_R21/debug/_ext/1515990320/smpsDebugUART.o
 __c30_signature
                  0x006bd7          0x6 build/00173_USB_PD_BOB_R21/debug/_ext/1515990320/smpsDebugUART_UserCID.o
 __c30_signature
                  0x006bdd          0x6 build/00173_USB_PD_BOB_R21/debug/_ext/92048113/debug_uart.o
 __c30_signature
                  0x006be3          0x6 build/00173_USB_PD_BOB_R21/debug/_ext/2109991248/upd_timer.o
 __c30_signature
                  0x006be9          0x6 build/00173_USB_PD_BOB_R21/debug/_ext/553671219/c4swbb_control.o
 __c30_signature
                  0x006bef          0x6 build/00173_USB_PD_BOB_R21/debug/_ext/553671219/c4swbb_pconfig.o
 __c30_signature
                  0x006bf5          0x6 build/00173_USB_PD_BOB_R21/debug/_ext/553671219/cha_iloop.o
 __c30_signature
                  0x006bfb          0x6 build/00173_USB_PD_BOB_R21/debug/_ext/553671219/cha_vloop.o
 __c30_signature
                  0x006c01          0x6 build/00173_USB_PD_BOB_R21/debug/_ext/553671219/chb_iloop.o
 __c30_signature
                  0x006c07          0x6 build/00173_USB_PD_BOB_R21/debug/_ext/553671219/chb_vloop.o
 __c30_signature
                  0x006c0d          0x6 build/00173_USB_PD_BOB_R21/debug/_ext/1494078692/spi2.o
 __c30_signature
                  0x006c13          0x6 build/00173_USB_PD_BOB_R21/debug/_ext/1666088709/cfg_globals.o
 __c30_signature
                  0x006c19          0x6 build/00173_USB_PD_BOB_R21/debug/_ext/1666088709/debug.o
 __c30_signature
                  0x006c1f          0x6 build/00173_USB_PD_BOB_R21/debug/_ext/1666088709/generic_timer.o
 __c30_signature
                  0x006c25          0x6 build/00173_USB_PD_BOB_R21/debug/_ext/1666088709/int_globals.o
 __c30_signature
                  0x006c2b          0x6 build/00173_USB_PD_BOB_R21/debug/_ext/1666088709/pd_main.o
 __c30_signature
                  0x006c31          0x6 build/00173_USB_PD_BOB_R21/debug/_ext/1666088709/policy_engine.o
 __c30_signature
                  0x006c37          0x6 build/00173_USB_PD_BOB_R21/debug/_ext/1666088709/policy_engine_fwup.o
 __c30_signature
                  0x006c3d          0x6 build/00173_USB_PD_BOB_R21/debug/_ext/1666088709/policy_engine_snk.o
 __c30_signature
                  0x006c43          0x6 build/00173_USB_PD_BOB_R21/debug/_ext/1666088709/policy_engine_src.o
 __c30_signature
                  0x006c49          0x6 build/00173_USB_PD_BOB_R21/debug/_ext/1666088709/policy_manager.o
 __c30_signature
                  0x006c4f          0x6 build/00173_USB_PD_BOB_R21/debug/_ext/1666088709/protocol_layer.o
 __c30_signature
                  0x006c55          0x6 build/00173_USB_PD_BOB_R21/debug/_ext/1666088709/typeC_control.o
 __c30_signature
                  0x006c5b          0x6 build/00173_USB_PD_BOB_R21/debug/_ext/1666088709/upd_hw.o
 __c30_signature
                  0x006c61          0x6 build/00173_USB_PD_BOB_R21/debug/_ext/1666088709/upd_interrupts.o
 __c30_signature
                  0x006c67          0x6 build/00173_USB_PD_BOB_R21/debug/_ext/481295256/hook_functions.o
 __c30_signature
                  0x006c6d          0x6 build/00173_USB_PD_BOB_R21/debug/_ext/481295256/thermal_power_management.o
 __c30_signature
                  0x006c73          0x6 build/00173_USB_PD_BOB_R21/debug/_ext/1838571682/task_Idle.o
 __c30_signature
                  0x006c79          0x6 build/00173_USB_PD_BOB_R21/debug/_ext/1838571682/task_PDStack.o
 __c30_signature
                  0x006c7f          0x6 build/00173_USB_PD_BOB_R21/debug/_ext/1838571682/task_PowerControl.o
 __c30_signature
                  0x006c85          0x6 build/00173_USB_PD_BOB_R21/debug/_ext/1838571682/task_DebugUART.o
 __c30_signature
                  0x006c8b          0x6 build/00173_USB_PD_BOB_R21/debug/_ext/659850787/apl.o
 __c30_signature
                  0x006c91          0x6 build/00173_USB_PD_BOB_R21/debug/_ext/659857049/hal.o
 __c30_signature
                  0x006c97          0x6 build/00173_USB_PD_BOB_R21/debug/_ext/391766742/config_bits_P33CH.o
 __c30_signature
                  0x006c9d          0x6 build/00173_USB_PD_BOB_R21/debug/_ext/391766742/config_bits_P33CK.o
 __c30_signature
                  0x006ca3          0x6 build/00173_USB_PD_BOB_R21/debug/_ext/1171588148/init_dsp.o
 __c30_signature
                  0x006ca9          0x6 build/00173_USB_PD_BOB_R21/debug/_ext/1171588148/init_fosc.o
 __c30_signature
                  0x006caf          0x6 build/00173_USB_PD_BOB_R21/debug/_ext/1171588148/init_gpio.o
 __c30_signature
                  0x006cb5          0x6 build/00173_USB_PD_BOB_R21/debug/_ext/1171588148/init_irq.o
 __c30_signature
                  0x006cbb          0x6 build/00173_USB_PD_BOB_R21/debug/_ext/1171588148/init_timer.o
 __c30_signature
                  0x006cc1          0x6 build/00173_USB_PD_BOB_R21/debug/_ext/1019117317/mcal.o
 __c30_signature
                  0x006cc7          0x6 build/00173_USB_PD_BOB_R21/debug/_ext/659867775/sfl.o
 __c30_signature
                  0x006ccd          0x6 build/00173_USB_PD_BOB_R21/debug/_ext/1360937237/main.o
 __c30_signature
                  0x006cd3          0x6 ..\..\plib\p33SMPS_mcal.X\dist\__P33SMPS_CK__\debug\p33SMPS_mcal.X.a(p33SMPS_hsadc.o)
 __c30_signature
                  0x006cd9          0x6 ..\..\plib\p33SMPS_mcal.X\dist\__P33SMPS_CK__\debug\p33SMPS_mcal.X.a(p33SMPS_oscillator.o)
 __c30_signature
                  0x006cdf          0x6 ..\..\plib\p33SMPS_mcal.X\dist\__P33SMPS_CK__\debug\p33SMPS_mcal.X.a(p33SMPS_timer.o)
 __c30_signature
                  0x006ce5          0x6 ..\..\plib\p33SMPS_mcal.X\dist\__P33SMPS_CK__\debug\p33SMPS_mcal.X.a(p33SMPS_pmd.o)
 __c30_signature
                  0x006ceb          0x6 ..\..\plib\p33SMPS_mcal.X\dist\__P33SMPS_CK__\debug\p33SMPS_mcal.X.a(p33SMPS_pps.o)
 __c30_signature
                  0x006cf1          0x6 ..\..\plib\p33SMPS_mcal.X\dist\__P33SMPS_CK__\debug\p33SMPS_mcal.X.a(p33SMPS_irq.o)
 __c30_signature
                  0x006cf7          0x6 ..\..\plib\p33SMPS_mcal.X\dist\__P33SMPS_CK__\debug\p33SMPS_mcal.X.a(p33SMPS_gpio.o)
 __c30_signature
                  0x006cfd          0x6 ..\..\plib\p33SMPS_mcal.X\dist\__P33SMPS_CK__\debug\p33SMPS_mcal.X.a(p33SMPS_uart.o)
 __c30_signature
                  0x006d03          0x6 ..\..\plib\p33SMPS_mcal.X\dist\__P33SMPS_CK__\debug\p33SMPS_mcal.X.a(p33SMPS_hspwm_c.o)
 __c30_signature
                  0x006d09          0x6 ..\..\plib\p33SMPS_mcal.X\dist\__P33SMPS_CK__\debug\p33SMPS_mcal.X.a(p33SMPS_crc.o)
 __c30_signature
                  0x006d0f          0x6 c:/program files (x86)/microchip/xc16/v1.41/bin/bin/../../lib\liblega-pic30-elf.a(crt0_extendedch.o)
 __c30_signature
                  0x006d15          0x6 c:/program files (x86)/microchip/xc16/v1.41/bin/bin/../../lib\liblega-pic30-elf.a(data_init_extendedch.o)
 __c30_signature
                  0x006d1b          0x6 c:/program files (x86)/microchip/xc16/v1.41/bin/bin/../../lib\libm-elf.a(divsf3.cheo)
 __c30_signature
                  0x006d21          0x6 c:/program files (x86)/microchip/xc16/v1.41/bin/bin/../../lib\libm-elf.a(divsi3.cheo)
 __c30_signature
                  0x006d27          0x6 c:/program files (x86)/microchip/xc16/v1.41/bin/bin/../../lib\libm-elf.a(feqltle.cheo)
 __c30_signature
                  0x006d2d          0x6 c:/program files (x86)/microchip/xc16/v1.41/bin/bin/../../lib\libm-elf.a(fixunssfsi.cheo)
 __c30_signature
                  0x006d33          0x6 c:/program files (x86)/microchip/xc16/v1.41/bin/bin/../../lib\libm-elf.a(floatunsisf.cheo)
 __c30_signature
                  0x006d39          0x6 c:/program files (x86)/microchip/xc16/v1.41/bin/bin/../../lib\libm-elf.a(fpack.cheo)
 __c30_signature
                  0x006d3f          0x6 c:/program files (x86)/microchip/xc16/v1.41/bin/bin/../../lib\libm-elf.a(funpack.cheo)
 __c30_signature
                  0x006d45          0x6 c:/program files (x86)/microchip/xc16/v1.41/bin/bin/../../lib\libm-elf.a(funpack2.cheo)
 __c30_signature
                  0x006d4b          0x6 c:/program files (x86)/microchip/xc16/v1.41/bin/bin/../../lib\libm-elf.a(futil.cheo)
 __c30_signature
                  0x006d51          0x6 c:/program files (x86)/microchip/xc16/v1.41/bin/bin/../../lib\libm-elf.a(mulsf3.cheo)
 __c30_signature
                  0x006d57          0x6 c:/program files (x86)/microchip/xc16/v1.41/bin/bin/../../lib\libm-elf.a(udivsi3.cheo)
 __c30_signature
                  0x006d5d          0x6 c:/program files (x86)/microchip/xc16/v1.41/bin/bin/../../lib\libm-elf.a(fcompare.cheo)
 __c30_signature
                  0x006d63          0x6 c:/program files (x86)/microchip/xc16/v1.41/bin/bin/../../lib\libm-elf.a(floatundisf.cheo)
 __c30_signature
                  0x006d69          0x6 c:/program files (x86)/microchip/xc16/v1.41/bin/bin/../../lib\liblega-c-elf.a(sprintf_cdnopuxX.CHeo)
 __c30_signature
                  0x006d6f          0x6 c:/program files (x86)/microchip/xc16/v1.41/bin/bin/../../lib\liblega-c-elf.a(memcpy.CH_eo)
 __c30_signature
                  0x006d75          0x6 c:/program files (x86)/microchip/xc16/v1.41/bin/bin/../../lib\liblega-c-elf.a(xprintf_cdnopuxX.CHeo)
 __c30_signature
                  0x006d7b          0x6 c:/program files (x86)/microchip/xc16/v1.41/bin/bin/../../lib\liblega-c-elf.a(strchr.CH_eo)
 __c30_signature
                  0x006d81          0x6 c:/program files (x86)/microchip/xc16/v1.41/bin/bin/../../lib\liblega-c-elf.a(xputtxt.CH_eo)
 __c30_signature
                  0x006d87          0x6 c:/program files (x86)/microchip/xc16/v1.41/bin/bin/../../lib\liblega-c-elf.a(xvacopy.CH_eo)
 __c30_signature
                  0x006d8d          0x6 c:/program files (x86)/microchip/xc16/v1.41/bin/bin/../../lib\liblega-c-elf.a(xputfld_cdnopuxX.CHeo)
 __c30_signature
                  0x006d93          0x6 c:/program files (x86)/microchip/xc16/v1.41/bin/bin/../../lib\liblega-c-elf.a(xlitob.CH_eo)
 __c30_signature
                  0x006d99          0x6 c:/program files (x86)/microchip/xc16/v1.41/bin/bin/../../lib\libm-elf.a(umodsi3.cheo)
 __c30_signature
                  0x006d9f          0x6 c:/program files (x86)/microchip/xc16/v1.41/bin/bin/../../lib\libm-elf.a(divmoddi3.cheo)

_06B839005e17ab92
                    0x1050          0xa
 _06B839005e17ab92
                    0x1050          0xa build/00173_USB_PD_BOB_R21/debug/_ext/553671219/cha_iloop.o
                    0x1050                  _cha_iloop_coefficients

_063929005e17ab93
                    0x105a          0xa
 _063929005e17ab93
                    0x105a          0xa build/00173_USB_PD_BOB_R21/debug/_ext/553671219/cha_vloop.o
                    0x105a                  _cha_vloop_coefficients

_062499005e17ab92
                    0x1064          0xa
 _062499005e17ab92
                    0x1064          0xa build/00173_USB_PD_BOB_R21/debug/_ext/553671219/chb_iloop.o
                    0x1064                  _chb_iloop_coefficients

_063F19005e17ab93
                    0x106e          0xa
 _063F19005e17ab93
                    0x106e          0xa build/00173_USB_PD_BOB_R21/debug/_ext/553671219/chb_vloop.o
                    0x106e                  _chb_vloop_coefficients

.nbss               0x1078          0x2
 .nbss              0x1078          0x2 ..\..\plib\p33SMPS_mcal.X\dist\__P33SMPS_CK__\debug\p33SMPS_mcal.X.a(p33SMPS_hsadc.o)
                    0x1078                  _adcc_usage

.ybss               0x4ff6          0xa
 .ybss              0x4ff6          0xa build/00173_USB_PD_BOB_R21/debug/_ext/553671219/cha_iloop.o
                    0x4ff6                  _cha_iloop_histories

.ybss               0x4fec          0xa
 .ybss              0x4fec          0xa build/00173_USB_PD_BOB_R21/debug/_ext/553671219/cha_vloop.o
                    0x4fec                  _cha_vloop_histories

.ybss               0x4fe2          0xa
 .ybss              0x4fe2          0xa build/00173_USB_PD_BOB_R21/debug/_ext/553671219/chb_iloop.o
                    0x4fe2                  _chb_iloop_histories

.ybss               0x4fd8          0xa
 .ybss              0x4fd8          0xa build/00173_USB_PD_BOB_R21/debug/_ext/553671219/chb_vloop.o
                    0x4fd8                  _chb_vloop_histories

.bss                0x107a       0x21d8
 .bss               0x107a       0x117a build/00173_USB_PD_BOB_R21/debug/_ext/1838571682/task_PowerControl.o
                    0x107a                  _iavg_buf_1
                    0x107c                  _iavg_cnt_1
                    0x107e                  _iavg_buf_2
                    0x1080                  _iavg_cnt_2
                    0x1082                  _cntbuff
                    0x1084                  _c4swbb_1
                    0x116c                  _c4swbb_2
                    0x1254                  _buffer
 .bss               0x21f4        0x4bc build/00173_USB_PD_BOB_R21/debug/_ext/1515990320/smpsDebugUART.o
                    0x21f4                  _DebugUART
                    0x2204                  _uart_rx_buffer
                    0x2304                  _uart_tx_buffer
                    0x2404                  _uart
                    0x2430                  _rx_frame
                    0x24b0                  _rx_data
 .bss               0x26b0        0x444 build/00173_USB_PD_BOB_R21/debug/_ext/92048113/debug_uart.o
                    0x26b0                  _tx_buffer_head
                    0x26b2                  _tx_buffer_tail
                    0x26b4                  _pd_debug_string
                    0x26f4                  _debug_tx_buffer
 .bss               0x2af4        0x2fa build/00173_USB_PD_BOB_R21/debug/_ext/1666088709/int_globals.o
                    0x2af4                  _gasDPM
                    0x2b10                  _gasPolicy_Engine
                    0x2b40                  _gasPRL
                    0x2b54                  _gasPRLRecvBuff
                    0x2b9c                  _gasExtendedMsgBuff
                    0x2db0                  _gasChunkSM
                    0x2dc8                  _gasPDTimers
                    0x2dec                  _gau8PortDisable
 .bss               0x2dee        0x200 build/00173_USB_PD_BOB_R21/debug/_ext/949971983/os_Scheduler.o
                    0x2dee                  _task_time_buffer
                    0x2eee                  _cpu_time_buffer
 .bss               0x2fee        0x198 build/00173_USB_PD_BOB_R21/debug/_ext/687227054/UserFaultObjects.o
                    0x2fee                  _fltobj_UnderVoltageLockOut
                    0x3010                  _fltobj_OverVoltageLockOut
                    0x3032                  _fltobj_OverVoltageProtection_USBPort_1
                    0x3054                  _fltobj_OverCurrentProtection_USBPort_1
                    0x3076                  _fltobj_OverTempWarning_USBPort_1
                    0x3098                  _fltobj_OverTempProtection_USBPort_1
                    0x30ba                  _fltobj_RegulationError_USBPort_1
                    0x30dc                  _fltobj_OverVoltageProtection_USBPort_2
                    0x30fe                  _fltobj_OverCurrentProtection_USBPort_2
                    0x3120                  _fltobj_OverTempWarning_USBPort_2
                    0x3142                  _fltobj_OverTempProtection_USBPort_2
                    0x3164                  _fltobj_RegulationError_USBPort_2
 .bss               0x3186         0xcc build/00173_USB_PD_BOB_R21/debug/_ext/949971983/fdrv_FaultObjects.o
                    0x3186                  _fltobj_CPUFailure
                    0x31a8                  _fltobj_CPULoadOverrun
                    0x31ca                  _fltobj_TaskExecutionFailure
                    0x31ec                  _fltobj_TaskTimeQuotaViolation
                    0x320e                  _fltobj_TaskMgrPeriodViolation
                    0x3230                  _fltobj_OSComponentFailure

.data               0x3252         0xcc
 .data              0x3252         0xcc build/00173_USB_PD_BOB_R21/debug/_ext/1666088709/cfg_globals.o
                    0x3252                  _gasPortConfigurationData
                    0x3296                  _gasPortNormalConfigurationData
                    0x32da                  _gasPortRollbackConfigurationData

.bss                0x331e         0x52
 .bss               0x331e         0x52 build/00173_USB_PD_BOB_R21/debug/_ext/1838571682/task_DebugUART.o
                    0x331e                  _tx_data_cid100
                    0x335e                  _cid100_update_counter
                    0x3360                  _tx_frame_cid100

.data               0x3370         0x4c
 .data              0x3370         0x4c build/00173_USB_PD_BOB_R21/debug/_ext/687227054/UserTasks.o
                    0x3370                  _Task_Table
                    0x3382                  _task_queue_boot
                    0x3386                  _task_queue_boot_size
                    0x3388                  _task_queue_firmware_init
                    0x338e                  _task_queue_firmware_init_size
                    0x3390                  _task_queue_startup_sequence
                    0x3398                  _task_queue_startup_sequence_size
                    0x339a                  _task_queue_idle
                    0x33a2                  _task_queue_idle_size
                    0x33a4                  _task_queue_run
                    0x33ac                  _task_queue_run_size
                    0x33ae                  _task_queue_fault
                    0x33b4                  _task_queue_fault_size
                    0x33b6                  _task_queue_standby
                    0x33ba                  _task_queue_standby_size

.bss                0x33bc        0x11e
 .bss               0x33bc         0x3e build/00173_USB_PD_BOB_R21/debug/_ext/949971983/os_TaskManager.o
                    0x33bc                  _task_mgr
 .bss               0x33fa         0x38 build/00173_USB_PD_BOB_R21/debug/_ext/553671219/cha_iloop.o
                    0x33fa                  _cha_iloop_post_shift_A
                    0x33fc                  _cha_iloop_post_scaler
                    0x33fe                  _cha_iloop
 .bss               0x3432         0x38 build/00173_USB_PD_BOB_R21/debug/_ext/553671219/cha_vloop.o
                    0x3432                  _cha_vloop_post_shift_A
                    0x3434                  _cha_vloop_post_scaler
                    0x3436                  _cha_vloop
 .bss               0x346a         0x38 build/00173_USB_PD_BOB_R21/debug/_ext/553671219/chb_iloop.o
                    0x346a                  _chb_iloop_post_shift_A
                    0x346c                  _chb_iloop_post_scaler
                    0x346e                  _chb_iloop
 .bss               0x34a2         0x38 build/00173_USB_PD_BOB_R21/debug/_ext/553671219/chb_vloop.o
                    0x34a2                  _chb_vloop_post_shift_A
                    0x34a4                  _chb_vloop_post_scaler
                    0x34a6                  _chb_vloop

.data               0x34da         0x34
 .data              0x34da         0x34 build/00173_USB_PD_BOB_R21/debug/_ext/687227054/UserFaultObjects.o
                    0x34da                  _user_fault_object_list
                    0x34f2                  _user_fltobj_list_size
                    0x34f4                  _user_fault_object_init_functions
                    0x350c                  _user_fault_object_init_functions_size

.bss                0x350e         0x30
 .bss               0x350e         0x30 ..\..\plib\p33SMPS_mcal.X\dist\__P33SMPS_CK__\debug\p33SMPS_mcal.X.a(p33SMPS_oscillator.o)
                    0x350e                  _system_frequencies

.data               0x353e         0xb0
 .data              0x353e         0x22 c:/program files (x86)/microchip/xc16/v1.41/bin/bin/../../lib\liblega-c-elf.a(xlitob.CH_eo)
 .data              0x3560         0x1c build/00173_USB_PD_BOB_R21/debug/_ext/949971983/fdrv_FaultObjects.o
                    0x3560                  _os_fault_object_list
                    0x356c                  _os_fltobj_list_size
                    0x356e                  _os_fault_object_init_functions
                    0x357a                  _os_fault_object_init_functions_size
 .data              0x357c         0x1a c:/program files (x86)/microchip/xc16/v1.41/bin/bin/../../lib\liblega-c-elf.a(xprintf_cdnopuxX.CHeo)
 .data              0x3596         0x16 build/00173_USB_PD_BOB_R21/debug/_ext/553671219/cha_iloop.o
                    0x3596                  _cha_iloop_ACoefficients_size
                    0x3598                  _cha_iloop_BCoefficients_size
                    0x359a                  _cha_iloop_ControlHistory_size
                    0x359c                  _cha_iloop_ErrorHistory_size
                    0x359e                  _cha_iloop_ACoefficients
                    0x35a2                  _cha_iloop_BCoefficients
                    0x35a8                  _cha_iloop_pre_scaler
                    0x35aa                  _cha_iloop_post_shift_B
 .data              0x35ac         0x16 build/00173_USB_PD_BOB_R21/debug/_ext/553671219/cha_vloop.o
                    0x35ac                  _cha_vloop_ACoefficients_size
                    0x35ae                  _cha_vloop_BCoefficients_size
                    0x35b0                  _cha_vloop_ControlHistory_size
                    0x35b2                  _cha_vloop_ErrorHistory_size
                    0x35b4                  _cha_vloop_ACoefficients
                    0x35b8                  _cha_vloop_BCoefficients
                    0x35be                  _cha_vloop_pre_scaler
                    0x35c0                  _cha_vloop_post_shift_B
 .data              0x35c2         0x16 build/00173_USB_PD_BOB_R21/debug/_ext/553671219/chb_iloop.o
                    0x35c2                  _chb_iloop_ACoefficients_size
                    0x35c4                  _chb_iloop_BCoefficients_size
                    0x35c6                  _chb_iloop_ControlHistory_size
                    0x35c8                  _chb_iloop_ErrorHistory_size
                    0x35ca                  _chb_iloop_ACoefficients
                    0x35ce                  _chb_iloop_BCoefficients
                    0x35d4                  _chb_iloop_pre_scaler
                    0x35d6                  _chb_iloop_post_shift_B
 .data              0x35d8         0x16 build/00173_USB_PD_BOB_R21/debug/_ext/553671219/chb_vloop.o
                    0x35d8                  _chb_vloop_ACoefficients_size
                    0x35da                  _chb_vloop_BCoefficients_size
                    0x35dc                  _chb_vloop_ControlHistory_size
                    0x35de                  _chb_vloop_ErrorHistory_size
                    0x35e0                  _chb_vloop_ACoefficients
                    0x35e4                  _chb_vloop_BCoefficients
                    0x35ea                  _chb_vloop_pre_scaler
                    0x35ec                  _chb_vloop_post_shift_B

.bss                0x35ee         0x12
 .bss               0x35ee         0x12 build/00173_USB_PD_BOB_R21/debug/_ext/1666088709/cfg_globals.o
                    0x35ee                  _gasTypeCcontrol

.pbss               0x3600         0x10
 .pbss              0x3600         0x10 build/00173_USB_PD_BOB_R21/debug/_ext/949971983/fdrv_TrapHandler.o
                    0x3600                  _traplog

.data               0x3610          0xe
 .data              0x3610          0xe build/00173_USB_PD_BOB_R21/debug/_ext/481295256/thermal_power_management.o
                    0x3610                  _thermal_mgmt_state
                    0x3612                  _thermal_mgmt_substate
                    0x3614                  _thermal_rollback_threshold
                    0x3616                  _thermal_5v_only_threshold
                    0x3618                  _thermal_shutdown_threshold
                    0x361a                  _power_budget_watts

.bss                0x361e         0x16
 .bss               0x361e          0xc build/00173_USB_PD_BOB_R21/debug/_ext/481295256/thermal_power_management.o
                    0x361e                  _thermal_shutdown_active
                    0x3620                  _port_pdo_update_required
                    0x3622                  _port_max_power
 .bss               0x362a          0x6 build/00173_USB_PD_BOB_R21/debug/_ext/1838571682/task_PDStack.o
                    0x362a                  _taskPDStack_config
 .bss               0x3630          0x4 build/00173_USB_PD_BOB_R21/debug/_ext/687227054/UserAppManager.o
                    0x3630                  _application

.data               0x3634          0x6
 .data              0x3634          0x2 build/00173_USB_PD_BOB_R21/debug/_ext/949971983/os_Scheduler.o
                    0x3634                  _run_scheduler
 .data              0x3636          0x2 build/00173_USB_PD_BOB_R21/debug/_ext/1515990320/smpsDebugUART.o
                    0x3636                  _rx_data_size
 .data              0x3638          0x2 build/00173_USB_PD_BOB_R21/debug/_ext/1838571682/task_DebugUART.o
                    0x3638                  _tx_data_cid100_size

.ivt._ReservedTrap5
                  0x00000e          0x2
 .ivt._ReservedTrap5
                  0x00000e          0x2 build/00173_USB_PD_BOB_R21/debug/_ext/949971983/fdrv_TrapHandler.o

.ivt._ReservedTrap7
                  0x000012          0x2
 .ivt._ReservedTrap7
                  0x000012          0x2 build/00173_USB_PD_BOB_R21/debug/_ext/949971983/fdrv_TrapHandler.o

.ivt._HardTrapError
                  0x000008          0x2
 .ivt._HardTrapError
                  0x000008          0x2 build/00173_USB_PD_BOB_R21/debug/_ext/949971983/fdrv_TrapHandler.o

.ivt._SoftTrapError
                  0x000010          0x2
 .ivt._SoftTrapError
                  0x000010          0x2 build/00173_USB_PD_BOB_R21/debug/_ext/949971983/fdrv_TrapHandler.o

.ivt._OscillatorFail
                  0x000004          0x2
 .ivt._OscillatorFail
                  0x000004          0x2 build/00173_USB_PD_BOB_R21/debug/_ext/949971983/fdrv_TrapHandler.o

.ivt._AddressError
                  0x000006          0x2
 .ivt._AddressError
                  0x000006          0x2 build/00173_USB_PD_BOB_R21/debug/_ext/949971983/fdrv_TrapHandler.o

.ivt._StackError
                  0x00000a          0x2
 .ivt._StackError
                  0x00000a          0x2 build/00173_USB_PD_BOB_R21/debug/_ext/949971983/fdrv_TrapHandler.o

.ivt._MathError
                  0x00000c          0x2
 .ivt._MathError
                  0x00000c          0x2 build/00173_USB_PD_BOB_R21/debug/_ext/949971983/fdrv_TrapHandler.o

.ivt._U3RXInterrupt
                  0x000086          0x2
 .ivt._U3RXInterrupt
                  0x000086          0x2 build/00173_USB_PD_BOB_R21/debug/_ext/1515990320/smpsDebugUART.o

.ivt._U3EInterrupt
                  0x000084          0x2
 .ivt._U3EInterrupt
                  0x000084          0x2 build/00173_USB_PD_BOB_R21/debug/_ext/1515990320/smpsDebugUART.o

.ivt._CCT7Interrupt
                  0x000140          0x2
 .ivt._CCT7Interrupt
                  0x000140          0x2 build/00173_USB_PD_BOB_R21/debug/_ext/2109991248/upd_timer.o

.ivt._ADCAN16Interrupt
                  0x0000ea          0x2
 .ivt._ADCAN16Interrupt
                  0x0000ea          0x2 build/00173_USB_PD_BOB_R21/debug/_ext/1838571682/task_PowerControl.o

.ivt._ADCAN18Interrupt
                  0x0000ee          0x2
 .ivt._ADCAN18Interrupt
                  0x0000ee          0x2 build/00173_USB_PD_BOB_R21/debug/_ext/1838571682/task_PowerControl.o

.ivt._ADCAN4Interrupt
                  0x0000d2          0x2
 .ivt._ADCAN4Interrupt
                  0x0000d2          0x2 build/00173_USB_PD_BOB_R21/debug/_ext/1838571682/task_PowerControl.o

.ivt._ADCAN9Interrupt
                  0x0000dc          0x2
 .ivt._ADCAN9Interrupt
                  0x0000dc          0x2 build/00173_USB_PD_BOB_R21/debug/_ext/1838571682/task_PowerControl.o

.config_BTMODE    0x801800          0x2
 .config_BTMODE
                  0x801800          0x2 build/00173_USB_PD_BOB_R21/debug/_ext/391766742/config_bits_P33CK.o

.config_IBSEQ     0x015ffc          0x2
 .config_IBSEQ    0x015ffc          0x2 build/00173_USB_PD_BOB_R21/debug/_ext/391766742/config_bits_P33CK.o

.config_CTXT4     0x015f44          0x2
 .config_CTXT4    0x015f44          0x2 build/00173_USB_PD_BOB_R21/debug/_ext/391766742/config_bits_P33CK.o

.config_SPI2PIN
                  0x015f40          0x2
 .config_SPI2PIN
                  0x015f40          0x2 build/00173_USB_PD_BOB_R21/debug/_ext/391766742/config_bits_P33CK.o

.config_DMTDIS    0x015f3c          0x2
 .config_DMTDIS
                  0x015f3c          0x2 build/00173_USB_PD_BOB_R21/debug/_ext/391766742/config_bits_P33CK.o

.config_DMTCNTH
                  0x015f38          0x2
 .config_DMTCNTH
                  0x015f38          0x2 build/00173_USB_PD_BOB_R21/debug/_ext/391766742/config_bits_P33CK.o

.config_DMTCNTL
                  0x015f34          0x2
 .config_DMTCNTL
                  0x015f34          0x2 build/00173_USB_PD_BOB_R21/debug/_ext/391766742/config_bits_P33CK.o

.config_DMTIVTH
                  0x015f30          0x2
 .config_DMTIVTH
                  0x015f30          0x2 build/00173_USB_PD_BOB_R21/debug/_ext/391766742/config_bits_P33CK.o

.config_DMTIVTL
                  0x015f2c          0x2
 .config_DMTIVTL
                  0x015f2c          0x2 build/00173_USB_PD_BOB_R21/debug/_ext/391766742/config_bits_P33CK.o

.config_NOBTSWP
                  0x015f28          0x2
 .config_NOBTSWP
                  0x015f28          0x2 build/00173_USB_PD_BOB_R21/debug/_ext/391766742/config_bits_P33CK.o

.config_BISTDIS
                  0x015f24          0x2
 .config_BISTDIS
                  0x015f24          0x2 build/00173_USB_PD_BOB_R21/debug/_ext/391766742/config_bits_P33CK.o

.config_FWDTEN    0x015f20          0x2
 .config_FWDTEN
                  0x015f20          0x2 build/00173_USB_PD_BOB_R21/debug/_ext/391766742/config_bits_P33CK.o

.config_XTBST     0x015f1c          0x2
 .config_XTBST    0x015f1c          0x2 build/00173_USB_PD_BOB_R21/debug/_ext/391766742/config_bits_P33CK.o

.config_IESO      0x015f18          0x2
 .config_IESO     0x015f18          0x2 build/00173_USB_PD_BOB_R21/debug/_ext/391766742/config_bits_P33CK.o

.config_BSLIM     0x015f10          0x2
 .config_BSLIM    0x015f10          0x2 build/00173_USB_PD_BOB_R21/debug/_ext/391766742/config_bits_P33CK.o

.const              0x9544        0xfb0 load address 0x001544  
 .const             0x9544        0x482 build/00173_USB_PD_BOB_R21/debug/_ext/1666088709/protocol_layer.o
                    0x998c                  _au16BBTxRiseDACValues
                    0x99a4                  _au16BBTxFallDACValues
                    0x99bc                  _au8BMCEncoderRegValues
 .const             0x99c6        0x44a build/00173_USB_PD_BOB_R21/debug/_ext/1666088709/policy_engine_src.o
 .const             0x9e10        0x42c build/00173_USB_PD_BOB_R21/debug/_ext/1666088709/typeC_control.o
                    0xa22c                  _au16CCThrVal
 .const             0xa23c        0x174 build/00173_USB_PD_BOB_R21/debug/_ext/1666088709/policy_engine.o
 .const             0xa3b0         0xc4 build/00173_USB_PD_BOB_R21/debug/_ext/481295256/hook_functions.o
 .const             0xa474         0x7a build/00173_USB_PD_BOB_R21/debug/_ext/1666088709/policy_manager.o
 .const             0xa4ee          0x6 build/00173_USB_PD_BOB_R21/debug/_ext/1666088709/upd_hw.o

.text             0x0024f4       0x87bc
 .text            0x0024f4       0x21e4 build/00173_USB_PD_BOB_R21/debug/_ext/1666088709/typeC_control.o
                  0x0024f4                  _TypeC_SubStateChange_TimerCB
                  0x002504                  _TypeC_SetCCDebounceVariable
                  0x002572                  _TypeC_HandleISR
                  0x002878                  _TypeC_ConfigCCComp
                  0x0028d0                  _TypeC_SetVBUSCompONOFF
                  0x002934                  _TypeC_SetCCSampleEnable
                  0x0029b2                  _TypeC_SetPowerRole
                  0x002a32                  _TypeC_SetDataRole
                  0x002a4c                  _TypeC_EnabDisVCONN
                  0x002c64                  _TypeC_VCONN_ON_IntrHandler
                  0x002d68                  _TypeC_SrcIntrHandler
                  0x002fc4                  _TypeC_SetDefaultRpValue
                  0x0031f8                  _TypeC_Reset_VCONNDIS_Settings
                  0x003346                  _TypeC_CCVBUSIntrHandler
                  0x003440                  _TypeC_VCONNDis_On_IntrHandler
                  0x0035ac                  _TypeC_SetRpCollAvoidance
                  0x0037ca                  _TypeC_CheckRpValCollAvoidance
                  0x003808                  _TypeC_KillTypeCTimer
                  0x003824                  _TypeC_ConfigureVBUSThr
                  0x00395e                  _TypeC_VBUSDrive
                  0x003978                  _TypeC_VCONNONErrorTimerCB
                  0x003a0a                  _TypeC_InitPort
                  0x003f02                  _TypeC_RunStateMachine
                  0x0046c2                  _TypeC_StateChange_TimerCB
 .text            0x0046d8       0x1a9c build/00173_USB_PD_BOB_R21/debug/_ext/1666088709/protocol_layer.o
                  0x0046d8                  _PRL_ChunkStateChange_TimerCB
                  0x0046fa                  _PRL_RCHChunkSMStateChange_RCHCB
                  0x004748                  _PRL_CASinkTxTimerOut_TimerCB
                  0x0047e2                  _PRL_TCHChunkSMStateChange_TCHCB
                  0x004932                  _PRL_Init
                  0x004be2                  _PRL_UpdateSpecAndDeviceRoles
                  0x004c38                  _PRL_FormSOPTypeMsgHeader
                  0x004c66                  _PRL_FormNonSOPTypeMsgHeader
                  0x004c84                  _PRL_BuildTxPacket
                  0x004d8c                  _PRL_TransmitMsg
                  0x0050ea                  _PRL_SendCableorHardReset
                  0x00518a                  _PRL_EnableRx
                  0x0051d2                  _PRL_HandleISR
                  0x005384                  _PRL_IncrementMsgID
                  0x005408                  _PRL_ProcessRxFIFOISR
                  0x005444                  _PRL_TxRxMsgID_Reset
                  0x005496                  _PRL_ProtocolspecificSOPReset
                  0x0054e8                  _PRL_ProtocolResetAllSOPs
                  0x00552a                  _PRL_HRorCRCompltIndicationFromPE
                  0x005568                  _PRL_PHYLayerReset
                  0x005584                  _PRL_ProcessRecvdMsg
                  0x005a10                  _PRL_ReceiveMsg
                  0x005b20                  _PRL_IsAnyMsgPendinginPRL
                  0x005b42                  _PRL_SetCollisionAvoidance
                  0x005bb2                  _PRL_SinkIntAMS
                  0x005be4                  _PRL_CommitPendingTxOnCAISR
                  0x005c5c                  _PRL_UpdateTotalChunkNumVar
                  0x005c94                  _PRL_ResetChunkSM
                  0x005cce                  _PRL_TxOriginalCBfromCH
                  0x005d44                  _PRL_RunChunkStateMachine
                  0x006002                  _PRL_FormRequestChunkMsgHeader
                  0x00608a                  _PRL_KillCAorChunkSMTimer
                  0x0060a6                  _PRL_ConfigureBISTCarrierMode
                  0x0060f6                  _PRL_ChangeTxState
                  0x006112                  _PRL_ProtocolReset
 .text            0x006174        0xf6a build/00173_USB_PD_BOB_R21/debug/_ext/1666088709/policy_engine.o
                  0x006174                  _PE_StateChange_TransmitCB
                  0x0061ac                  _PE_StateChange_TimerCB
                  0x0061c0                  _PE_SubStateChange_TimerCB
                  0x0061d4                  _PE_InitPort
                  0x00622a                  _PE_IsMsgUnsupported
                  0x0062b0                  _PE_SendNotSupportedOrRejectMsg
                  0x0062e2                  _PE_SendHardResetMsg
                  0x006312                  _PE_SendSoftResetMsg
                  0x006342                  _PE_ValidateMessage
                  0x00641c                  _PE_HandleRcvdMsgAndTimeoutEvents
                  0x00644c                  _PE_HandleUnExpectedMsg
                  0x0064a8                  _PE_ReceiveMsgHandler
                  0x006cb2                  _PE_RunCommonStateMachine
                  0x006eb8                  _PE_RunStateMachine
                  0x007032                  _PE_SetHardResetReceiveFlag
                  0x00703e                  _PE_SubStateChangeAndTimeoutValidateCB
                  0x007078                  _PE_NoResponseTimerCB
                  0x007092                  _PE_FindVDMStateActiveFlag
                  0x0070c0                  _PE_KillPolicyEngineTimer
 .text            0x0070de        0xc50 build/00173_USB_PD_BOB_R21/debug/_ext/1666088709/policy_engine_src.o
                  0x0070de                  _PE_SrcRunStateMachine
 .text            0x007d2e        0xaa4 build/00173_USB_PD_BOB_R21/debug/_ext/949971983/fdrv_FaultHandler.o
                  0x007d2e                  _os_FaultObjects_Initialize
                  0x007dbe                  _CheckFaultCondition
                  0x007f04                  _SetFaultCondition
                  0x007fec                  _CaptureCPUInterruptStatus
                  0x00811a                  _CheckCPUResetRootCause
                  0x00818c                  _ExecFaultHandler
                  0x008208                  _ExecGlobalFaultFlagRelease
                  0x008260                  _ExecFaultFlagReleaseHandler
                  0x008288                  _exec_FaultCheckAll
 .text            0x0087d2        0x9e6 build/00173_USB_PD_BOB_R21/debug/_ext/1666088709/upd_hw.o
                  0x0087d2                  _UPD_RegWriteByte
                  0x008810                  _UPD_RegWriteWord
                  0x00884e                  _UPD_RegReadByte
                  0x008890                  _UPD_RegReadWord
                  0x0088d2                  _UPD_RegByteSetBit
                  0x008950                  _UPD_RegByteClearBit
                  0x0089d0                  _UPD_RegisterWrite
                  0x008a14                  _UPD_RegisterRead
                  0x008a5c                  _UPD_RegisterWriteISR
                  0x008a96                  _UPD_RegisterReadISR
                  0x008ad4                  _UPD_GPIOEnableDisable
                  0x008bc8                  _UPD_GPIOSetDirection
                  0x008cbc                  _UPD_GPIOSetBufferType
                  0x008db0                  _UPD_GPIOSetClearOutput
                  0x008ea4                  _UPD_GPIOSetIntrAlert
                  0x008f9a                  _UPD_ConfigurePIODebounceCount
                  0x008fec                  _UPD_GPIOSetDebounce
                  0x009118                  _UPD_GPIOInit
                  0x009156                  _UPD_PIOHandleISR
 .text            0x0091b8        0x9e2 build/00173_USB_PD_BOB_R21/debug/_ext/1838571682/task_PowerControl.o
                  0x0091b8                  _exec_PowerControl
                  0x009344                  _reset_PowerControl
                  0x009382                  _reset_USBPort_1
                  0x0093a4                  _reset_USBPort_2
                  0x0093c6                  _init_ISR_USBport_1
                  0x009460                  _init_ISR_USBport_2
                  0x0094da                  _init_USBport_1
                  0x009750                  _init_USBport_2
                  0x0099c2                  _init_PowerControl
 .text            0x009b9a        0x5ee build/00173_USB_PD_BOB_R21/debug/_ext/1666088709/generic_timer.o
                  0x009b9a                  _PDTimer_Init
                  0x009bd0                  _PDTimer_Start
                  0x009d48                  _PDTimer_WaitforTicks
                  0x009e9e                  _PDTimer_Kill
                  0x009ece                  _PDTimer_KillPortTimers
                  0x00a044                  _PDTimer_InterruptHandler
 .text            0x00a188        0x5d4 build/00173_USB_PD_BOB_R21/debug/_ext/1515990320/smpsDebugUART.o
                  0x00a188                  _DebugUART_TimingUpdate
                  0x00a1a2                  _smpsDebugUART_Initialize
                  0x00a27e                  _smpsDebugUART_InitializeFrame
                  0x00a2a6                  _smpsDebugUART_SendFrame
                  0x00a382                  _smpsDebugUART_ProcessDefaultCID
                  0x00a622                  _smpsDebugUART_Execute
 .text            0x00a75c        0x554 build/00173_USB_PD_BOB_R21/debug/_ext/553671219/c4swbb_control.o
                  0x00a75c                  _c4SWBB_TimingUpdate
                  0x00a784                  _exec_4SWBB_PowerController
                  0x00ab6a                  _c4SWBB_shut_down
                  0x00aba4                  _reset_4SWBB_PowerController
                  0x00ac2c                  _init_4SWBB_PowerController

.text.smpsHSPWM_Module_Initialize
                  0x00acb0        0x52a
 .text.smpsHSPWM_Module_Initialize
                  0x00acb0        0x52a ..\..\plib\p33SMPS_mcal.X\dist\__P33SMPS_CK__\debug\p33SMPS_mcal.X.a(p33SMPS_hspwm_c.o)
                  0x00acb0                  _smpsHSPWM_Module_Initialize

.text             0x00b1da        0xa2e
 .text            0x00b1da        0x51e build/00173_USB_PD_BOB_R21/debug/_ext/1666088709/policy_manager.o
                  0x00b1da                  _DPM_Init
                  0x00b228                  _DPM_StateMachine
                  0x00b23c                  _DPM_GetTypeCStates
                  0x00b24c                  _DPM_GetPoweredCablePresence
                  0x00b25a                  _DPM_SetTypeCState
                  0x00b26a                  _DPM_SetPortPower
                  0x00b29a                  _DPM_ConfigurePwrFault
                  0x00b29c                  _DPM_VConnOnOff
                  0x00b2a6                  _DPM_GetVBUSVoltage
                  0x00b2dc                  _DPM_VBusOnOff
                  0x00b306                  _DPM_ValidateRequest
                  0x00b3ca                  _DPM_CurrentCutDown
                  0x00b3f0                  _DPM_ChangeCapbilities
                  0x00b442                  _DPM_Get_Source_Capabilities
                  0x00b52c                  _DPM_StoreVDMECableData
                  0x00b57e                  _DPM_Evaluate_VCONN_Swap
                  0x00b580                  _DPM_IsPort_VCONN_Source
                  0x00b592                  _DPM_VBUSOnOffTimerCB
                  0x00b5bc                  _DPM_SrcReadyTimerCB
                  0x00b602                  _DPM_VCONNONTimerErrorCB
                  0x00b6b8                  _DPM_VCONNOFFErrorTimerCB
                  0x00b6dc                  _DPM_ResetVCONNErrorCnt
                  0x00b6e8                  _DPM_IsHardResetInProgress
 .text            0x00b6f8        0x510 build/00173_USB_PD_BOB_R21/debug/_ext/553671219/c4swbb_pconfig.o
                  0x00b6f8                  _c4swbb_pwm_module_initialize
                  0x00b786                  _c4swbb_pwm_generators_initialize
                  0x00b95a                  _c4swbb_pwm_enable
                  0x00b9b8                  _c4swbb_pwm_disable
                  0x00b9f0                  _c4swbb_pwm_hold
                  0x00ba20                  _c4swbb_pwm_release
                  0x00ba50                  _c4swbb_adc_module_initialize
                  0x00baba                  _c4swbb_adc_inputs_initialize
                  0x00bbe8                  _c4swbb_adc_enable

.text.smpsHSPWM_Channel_Initialize
                  0x00bc08        0x4de
 .text.smpsHSPWM_Channel_Initialize
                  0x00bc08        0x4de ..\..\plib\p33SMPS_mcal.X\dist\__P33SMPS_CK__\debug\p33SMPS_mcal.X.a(p33SMPS_hspwm_c.o)
                  0x00bc08                  _smpsHSPWM_Channel_Initialize

.text             0x00c0e6        0x830
 .text            0x00c0e6        0x430 build/00173_USB_PD_BOB_R21/debug/_ext/687227054/UserFaultObjects.o
                  0x00c0e6                  _flt_UnderVoltageLockOut_Initialize
                  0x00c140                  _flt_OverVoltageLockOut_Initialize
                  0x00c19a                  _flt_OverVoltageProtection_USBPort_1_Initialize
                  0x00c1f4                  _flt_OverCurrentProtection_USBPort_1_Initialize
                  0x00c24e                  _flt_OverTempWarning_USBPort_1_Initialize
                  0x00c2a4                  _flt_OverTempProtection_USBPort_1_Initialize
                  0x00c2fc                  _flt_RegulationError_USBPort_1_Initialize
                  0x00c358                  _flt_OverVoltageProtection_USBPort_2_Initialize
                  0x00c3b2                  _flt_OverCurrentProtection_USBPort_2_Initialize
                  0x00c40c                  _flt_OverTempWarning_USBPort_2_Initialize
                  0x00c462                  _flt_OverTempProtection_USBPort_2_Initialize
                  0x00c4ba                  _flt_RegulationError_USBPort_2_Initialize
 .text            0x00c516        0x400 build/00173_USB_PD_BOB_R21/debug/_ext/481295256/hook_functions.o
                  0x00c516                  _configure_upd350_gpio
                  0x00c566                  _port_led_on
                  0x00c56e                  _port_led_off
                  0x00c576                  _hw_portpower_init
                  0x00c616                  _hw_portpower_driveVBUS
                  0x00c7ee                  _hw_portpower_enab_dis_VBUSDischarge
                  0x00c808                  _CRITICAL_SECTION_ENTER
                  0x00c80a                  _CRITICAL_SECTION_EXIT
                  0x00c80c                  _updalert_init
                  0x00c820                  _upd_irq_asserted
                  0x00c83c                  _updreset_init
                  0x00c84a                  _updreset_thru_gpio
                  0x00c854                  _hw_spi_init
                  0x00c858                  _hw_spi_cs_low
                  0x00c86a                  _hw_spi_cs_high
                  0x00c87c                  _SPI_Write
                  0x00c882                  _SPI_Read
                  0x00c88a                  _hook_policy_engine_pre_process
                  0x00c88c                  _hook_pdo_request_post_process_valid
                  0x00c890                  _hook_notify_pd_events_cb
                  0x00c8a6                  _hook_function_get_temperature_in_c
                  0x00c8a8                  _hook_debug_print_string
                  0x00c8ac                  _hook_debug_u8
                  0x00c8c8                  _hook_debug_u16
                  0x00c8e2                  _hook_debug_u32
                  0x00c8fc                  _hook_debug_i32

.text.smpsUART_OpenPort
                  0x00c916        0x3dc
 .text.smpsUART_OpenPort
                  0x00c916        0x3dc ..\..\plib\p33SMPS_mcal.X\dist\__P33SMPS_CK__\debug\p33SMPS_mcal.X.a(p33SMPS_uart.o)
                  0x00c916                  _smpsUART_OpenPort

.text             0x00ccf2        0x3d8
 .text            0x00ccf2        0x3d8 build/00173_USB_PD_BOB_R21/debug/_ext/481295256/thermal_power_management.o
                  0x00ccf2                  _check_power_budget
                  0x00ce30                  _update_all_port_pdos
                  0x00ce84                  _reset_port_pdos
                  0x00cf02                  _update_single_port_pdos
                  0x00cf56                  _power_management_state_machine

.text.smpsUART_Initialize
                  0x00d0ca        0x3ce
 .text.smpsUART_Initialize
                  0x00d0ca        0x3ce ..\..\plib\p33SMPS_mcal.X\dist\__P33SMPS_CK__\debug\p33SMPS_mcal.X.a(p33SMPS_uart.o)
                  0x00d0ca                  _smpsUART_Initialize

.text.smpsGPIO_WriteConfig
                  0x00d498        0x39e
 .text.smpsGPIO_WriteConfig
                  0x00d498        0x39e ..\..\plib\p33SMPS_mcal.X\dist\__P33SMPS_CK__\debug\p33SMPS_mcal.X.a(p33SMPS_gpio.o)
                  0x00d498                  _smpsGPIO_WriteConfig

.text.smpsGPIO_ClearConfig
                  0x00d836        0x338
 .text.smpsGPIO_ClearConfig
                  0x00d836        0x338 ..\..\plib\p33SMPS_mcal.X\dist\__P33SMPS_CK__\debug\p33SMPS_mcal.X.a(p33SMPS_gpio.o)
                  0x00d836                  _smpsGPIO_ClearConfig

.text.smpsOSC_GetFrequencies
                  0x00db6e        0x332
 .text.smpsOSC_GetFrequencies
                  0x00db6e        0x332 ..\..\plib\p33SMPS_mcal.X\dist\__P33SMPS_CK__\debug\p33SMPS_mcal.X.a(p33SMPS_oscillator.o)
                  0x00db6e                  _smpsOSC_GetFrequencies

.text             0x00dea0        0x562
 .text            0x00dea0        0x2ec build/00173_USB_PD_BOB_R21/debug/_ext/949971983/os_TaskManager.o
                  0x00dea0                  _os_ProcessTaskQueue
                  0x00df80                  _os_CheckOperationModeStatus
                  0x00e102                  _os_TaskManager_Initialize
 .text            0x00e18c        0x276 build/00173_USB_PD_BOB_R21/debug/_ext/1666088709/pd_main.o
                  0x00e18c                  _PD_CheckAndDisablePorts
                  0x00e25e                  _PD_StateMachinesInit
                  0x00e296                  _PD_Init
                  0x00e3de                  _PD_Run

.dinit            0x00e402        0x266
 .dinit           0x00e402        0x266 data_init

.text.smpsUART_ReadFIFO
                  0x00e668        0x24e
 .text.smpsUART_ReadFIFO
                  0x00e668        0x24e ..\..\plib\p33SMPS_mcal.X\dist\__P33SMPS_CK__\debug\p33SMPS_mcal.X.a(p33SMPS_uart.o)
                  0x00e668                  _smpsUART_ReadFIFO

.text.smpsHSPWM_IndependentPWM_Initialize
                  0x00e8b6        0x22c
 .text.smpsHSPWM_IndependentPWM_Initialize
                  0x00e8b6        0x22c ..\..\plib\p33SMPS_mcal.X\dist\__P33SMPS_CK__\debug\p33SMPS_mcal.X.a(p33SMPS_hspwm_c.o)
                  0x00e8b6                  _smpsHSPWM_IndependentPWM_Initialize

.text             0x00eae2        0x1cc
 .text            0x00eae2        0x1cc build/00173_USB_PD_BOB_R21/debug/_ext/949971983/fdrv_FaultObjects.o
                  0x00eae2                  _CPUFailureObject_Initialize
                  0x00eb2e                  _CPULoadOverrunFaultObject_Initialize
                  0x00eb76                  _TaskExecutionFaultObject_Initialize
                  0x00ebbe                  _TaskTimeQuotaViolationFaultObject_Initialize
                  0x00ec18                  _TaskMgrPeriodViolationFaultObject_Initialize
                  0x00ec62                  _OSComponentFailureFaultObject_Initialize

.text.smpsCRC_Initialize
                  0x00ecae        0x1c4
 .text.smpsCRC_Initialize
                  0x00ecae        0x1c4 ..\..\plib\p33SMPS_mcal.X\dist\__P33SMPS_CK__\debug\p33SMPS_mcal.X.a(p33SMPS_crc.o)
                  0x00ecae                  _smpsCRC_Initialize

.text.smpsHSADC_Module_Initialize
                  0x00ee72        0x1a6
 .text.smpsHSADC_Module_Initialize
                  0x00ee72        0x1a6 ..\..\plib\p33SMPS_mcal.X\dist\__P33SMPS_CK__\debug\p33SMPS_mcal.X.a(p33SMPS_hsadc.o)
                  0x00ee72                  _smpsHSADC_Module_Initialize

.text.smpsOSC_Initialize
                  0x00f018        0x198
 .text.smpsOSC_Initialize
                  0x00f018        0x198 ..\..\plib\p33SMPS_mcal.X\dist\__P33SMPS_CK__\debug\p33SMPS_mcal.X.a(p33SMPS_oscillator.o)
                  0x00f018                  _smpsOSC_Initialize

.text             0x00f1b0        0x2e2
 .text            0x00f1b0        0x178 build/00173_USB_PD_BOB_R21/debug/_ext/1838571682/task_DebugUART.o
                  0x00f1b0                  _task_DebugUART_Execute
                  0x00f2de                  _task_DebugUART_Initialize
 .text            0x00f328        0x16a build/00173_USB_PD_BOB_R21/debug/_ext/949971983/os_Scheduler.o
                  0x00f328                  _OS_Execute

.text.smpsUART_WriteFIFO
                  0x00f492        0x162
 .text.smpsUART_WriteFIFO
                  0x00f492        0x162 ..\..\plib\p33SMPS_mcal.X\dist\__P33SMPS_CK__\debug\p33SMPS_mcal.X.a(p33SMPS_uart.o)
                  0x00f492                  _smpsUART_WriteFIFO

.text.smpsHSADC_ADComp_Initialize
                  0x00f5f4        0x160
 .text.smpsHSADC_ADComp_Initialize
                  0x00f5f4        0x160 ..\..\plib\p33SMPS_mcal.X\dist\__P33SMPS_CK__\debug\p33SMPS_mcal.X.a(p33SMPS_hsadc.o)
                  0x00f5f4                  _smpsHSADC_ADComp_Initialize

.text.smpsUART_GetBaudrate
                  0x00f754        0x15c
 .text.smpsUART_GetBaudrate
                  0x00f754        0x15c ..\..\plib\p33SMPS_mcal.X\dist\__P33SMPS_CK__\debug\p33SMPS_mcal.X.a(p33SMPS_uart.o)
                  0x00f754                  _smpsUART_GetBaudrate

.text             0x00f8b0        0x14a
 .text            0x00f8b0        0x14a build/00173_USB_PD_BOB_R21/debug/_ext/1494078692/spi2.o
                  0x00f8b0                  _SPI2_Initialize
                  0x00f8fc                  _SPI2_Exchange
                  0x00f90e                  _SPI2_ExchangeBuffer
                  0x00f97a                  _SPI2_Exchange8bit
                  0x00f98a                  _SPI2_Exchange8bitBuffer
                  0x00f9f6                  _SPI2_StatusGet

.text.smpsCRC_GetStandard_Data8CRC16
                  0x00f9fa        0x134
 .text.smpsCRC_GetStandard_Data8CRC16
                  0x00f9fa        0x134 ..\..\plib\p33SMPS_mcal.X\dist\__P33SMPS_CK__\debug\p33SMPS_mcal.X.a(p33SMPS_crc.o)
                  0x00f9fa                  _smpsCRC_GetStandard_Data8CRC16

.text.smpsHSADC_ADInput_SetMode
                  0x00fb2e        0x11a
 .text.smpsHSADC_ADInput_SetMode
                  0x00fb2e        0x11a ..\..\plib\p33SMPS_mcal.X\dist\__P33SMPS_CK__\debug\p33SMPS_mcal.X.a(p33SMPS_hsadc.o)
                  0x00fb2e                  _smpsHSADC_ADInput_SetMode

.text.smpsTimer_Initialize16b
                  0x00fc48         0xf6
 .text.smpsTimer_Initialize16b
                  0x00fc48         0xf6 ..\..\plib\p33SMPS_mcal.X\dist\__P33SMPS_CK__\debug\p33SMPS_mcal.X.a(p33SMPS_timer.o)
                  0x00fc48                  _smpsTimer_Initialize16b

.text             0x00fd3e         0xf0
 .text            0x00fd3e         0xf0 build/00173_USB_PD_BOB_R21/debug/_ext/92048113/debug_uart.o
                  0x00fd3e                  _DEBUG_init
                  0x00fd90                  _DEBUG_write
                  0x00fdb2                  _DEBUG_print
                  0x00fde6                  _debug_uart_tx
                  0x00fe0e                  _debug_uart_tx_flush

.text.smpsHSADC_Core_PowerUp
                  0x00fe2e         0xee
 .text.smpsHSADC_Core_PowerUp
                  0x00fe2e         0xee ..\..\plib\p33SMPS_mcal.X\dist\__P33SMPS_CK__\debug\p33SMPS_mcal.X.a(p33SMPS_hsadc.o)
                  0x00fe2e                  _smpsHSADC_Core_PowerUp

.text.smpsHSADC_ADInput_SetInterrupt
                  0x00ff1c         0xec
 .text.smpsHSADC_ADInput_SetInterrupt
                  0x00ff1c         0xec ..\..\plib\p33SMPS_mcal.X\dist\__P33SMPS_CK__\debug\p33SMPS_mcal.X.a(p33SMPS_hsadc.o)
                  0x00ff1c                  _smpsHSADC_ADInput_SetInterrupt

.text             0x010008        0x3a0
 .text            0x010008         0xe8 build/00173_USB_PD_BOB_R21/debug/_ext/553671219/cha_iloop.o
                  0x010008                  _cha_iloop_Init
 .text            0x0100f0         0xe8 build/00173_USB_PD_BOB_R21/debug/_ext/553671219/cha_vloop.o
                  0x0100f0                  _cha_vloop_Init
 .text            0x0101d8         0xe8 build/00173_USB_PD_BOB_R21/debug/_ext/553671219/chb_iloop.o
                  0x0101d8                  _chb_iloop_Init
 .text            0x0102c0         0xe8 build/00173_USB_PD_BOB_R21/debug/_ext/553671219/chb_vloop.o
                  0x0102c0                  _chb_vloop_Init

.text.smpsUART_GetBaudrateRegValue
                  0x0103a8         0xe0
 .text.smpsUART_GetBaudrateRegValue
                  0x0103a8         0xe0 ..\..\plib\p33SMPS_mcal.X\dist\__P33SMPS_CK__\debug\p33SMPS_mcal.X.a(p33SMPS_uart.o)
                  0x0103a8                  _smpsUART_GetBaudrateRegValue

.text.gsirq_irq_initialize
                  0x010488         0xca
 .text.gsirq_irq_initialize
                  0x010488         0xca ..\..\plib\p33SMPS_mcal.X\dist\__P33SMPS_CK__\debug\p33SMPS_mcal.X.a(p33SMPS_irq.o)
                  0x010488                  _gsirq_irq_initialize

.text.smpsUART_SetBaudrate
                  0x010552         0xc2
 .text.smpsUART_SetBaudrate
                  0x010552         0xc2 ..\..\plib\p33SMPS_mcal.X\dist\__P33SMPS_CK__\debug\p33SMPS_mcal.X.a(p33SMPS_uart.o)
                  0x010552                  _smpsUART_SetBaudrate

.text             0x010614         0xc0
 .text            0x010614         0xc0 build/00173_USB_PD_BOB_R21/debug/_ext/1666088709/debug.o
                  0x010614                  _HookDebugBufferInt32
                  0x010644                  _HookDebugBufferUint32
                  0x010674                  _HookDebugBufferUint16
                  0x0106a4                  _HookDebugBufferUint8

.text.smpsOSC_FRC_DefaultInitialize
                  0x0106d4         0xb8
 .text.smpsOSC_FRC_DefaultInitialize
                  0x0106d4         0xb8 ..\..\plib\p33SMPS_mcal.X\dist\__P33SMPS_CK__\debug\p33SMPS_mcal.X.a(p33SMPS_oscillator.o)
                  0x0106d4                  _smpsOSC_FRC_DefaultInitialize

.text             0x01078c        0x388
 .text            0x01078c         0xb6 build/00173_USB_PD_BOB_R21/debug/_ext/553671219/cha_iloop_asm.o
                  0x01078c                  _cha_iloop_Update
                  0x01080a                  _cha_iloop_Reset
                  0x010822                  _cha_iloop_Precharge
 .text            0x010842         0xb6 build/00173_USB_PD_BOB_R21/debug/_ext/553671219/cha_vloop_asm.o
                  0x010842                  _cha_vloop_Update
                  0x0108c0                  _cha_vloop_Reset
                  0x0108d8                  _cha_vloop_Precharge
 .text            0x0108f8         0xb6 build/00173_USB_PD_BOB_R21/debug/_ext/553671219/chb_iloop_asm.o
                  0x0108f8                  _chb_iloop_Update
                  0x010976                  _chb_iloop_Reset
                  0x01098e                  _chb_iloop_Precharge
 .text            0x0109ae         0xb6 build/00173_USB_PD_BOB_R21/debug/_ext/553671219/chb_vloop_asm.o
                  0x0109ae                  _chb_vloop_Update
                  0x010a2c                  _chb_vloop_Reset
                  0x010a44                  _chb_vloop_Precharge
 .text            0x010a64         0xb0 build/00173_USB_PD_BOB_R21/debug/_ext/949971983/os_Initialize.o
                  0x010a64                  _OS_Initialize
                  0x010a84                  _CLOCK_Initialize
                  0x010ac4                  _DEVICE_Initialize
                  0x010aee                  _DEVICE_Reset

.text.smpsTimer_GetTimerConfig
                  0x010b14         0xaa
 .text.smpsTimer_GetTimerConfig
                  0x010b14         0xaa ..\..\plib\p33SMPS_mcal.X\dist\__P33SMPS_CK__\debug\p33SMPS_mcal.X.a(p33SMPS_timer.o)
                  0x010b14                  _smpsTimer_GetTimerConfig

.text.smpsHSPWM_ChannelTiming_Initialize
                  0x010bbe         0xaa
 .text.smpsHSPWM_ChannelTiming_Initialize
                  0x010bbe         0xaa ..\..\plib\p33SMPS_mcal.X\dist\__P33SMPS_CK__\debug\p33SMPS_mcal.X.a(p33SMPS_hspwm_c.o)
                  0x010bbe                  _smpsHSPWM_ChannelTiming_Initialize

.text             0x010c68         0x94
 .text            0x010c68         0x94 build/00173_USB_PD_BOB_R21/debug/_ext/1666088709/upd_interrupts.o
                  0x010c68                  _UPDIntr_AlertHandler

.text.smpsHSADC_ADFilter_Initialize
                  0x010cfc         0x90
 .text.smpsHSADC_ADFilter_Initialize
                  0x010cfc         0x90 ..\..\plib\p33SMPS_mcal.X\dist\__P33SMPS_CK__\debug\p33SMPS_mcal.X.a(p33SMPS_hsadc.o)
                  0x010cfc                  _smpsHSADC_ADFilter_Initialize

.text.smpsUART_Dispose
                  0x010d8c         0x8c
 .text.smpsUART_Dispose
                  0x010d8c         0x8c ..\..\plib\p33SMPS_mcal.X\dist\__P33SMPS_CK__\debug\p33SMPS_mcal.X.a(p33SMPS_uart.o)
                  0x010d8c                  _smpsUART_Dispose

.text.smpsHSPWM_Enable
                  0x010e18         0x8c
 .text.smpsHSPWM_Enable
                  0x010e18         0x8c ..\..\plib\p33SMPS_mcal.X\dist\__P33SMPS_CK__\debug\p33SMPS_mcal.X.a(p33SMPS_hspwm_c.o)
                  0x010e18                  _smpsHSPWM_Enable

.text.smpsHSADC_ADInput_SetTriggerMode
                  0x010ea4         0x84
 .text.smpsHSADC_ADInput_SetTriggerMode
                  0x010ea4         0x84 ..\..\plib\p33SMPS_mcal.X\dist\__P33SMPS_CK__\debug\p33SMPS_mcal.X.a(p33SMPS_hsadc.o)
                  0x010ea4                  _smpsHSADC_ADInput_SetTriggerMode

.text.smpsOSC_AUXCLK_Initialize
                  0x010f28         0x84
 .text.smpsOSC_AUXCLK_Initialize
                  0x010f28         0x84 ..\..\plib\p33SMPS_mcal.X\dist\__P33SMPS_CK__\debug\p33SMPS_mcal.X.a(p33SMPS_oscillator.o)
                  0x010f28                  _smpsOSC_AUXCLK_Initialize

.text.smpsHSADC_ADInput_Initialize
                  0x010fac         0x7c
 .text.smpsHSADC_ADInput_Initialize
                  0x010fac         0x7c ..\..\plib\p33SMPS_mcal.X\dist\__P33SMPS_CK__\debug\p33SMPS_mcal.X.a(p33SMPS_hsadc.o)
                  0x010fac                  _smpsHSADC_ADInput_Initialize

.text.smpsUART_PowerOn
                  0x011028         0x7c
 .text.smpsUART_PowerOn
                  0x011028         0x7c ..\..\plib\p33SMPS_mcal.X\dist\__P33SMPS_CK__\debug\p33SMPS_mcal.X.a(p33SMPS_uart.o)
                  0x011028                  _smpsUART_PowerOn

.text.smpsUART_GetStandardCRC16
                  0x0110a4         0x78
 .text.smpsUART_GetStandardCRC16
                  0x0110a4         0x78 ..\..\plib\p33SMPS_mcal.X\dist\__P33SMPS_CK__\debug\p33SMPS_mcal.X.a(p33SMPS_uart.o)
                  0x0110a4                  _smpsUART_GetStandardCRC16

.text.smpsUART_PowerOff
                  0x01111c         0x70
 .text.smpsUART_PowerOff
                  0x01111c         0x70 ..\..\plib\p33SMPS_mcal.X\dist\__P33SMPS_CK__\debug\p33SMPS_mcal.X.a(p33SMPS_uart.o)
                  0x01111c                  _smpsUART_PowerOff

.text.smpsHSADC_Cores_CheckReady
                  0x01118c         0x6c
 .text.smpsHSADC_Cores_CheckReady
                  0x01118c         0x6c ..\..\plib\p33SMPS_mcal.X\dist\__P33SMPS_CK__\debug\p33SMPS_mcal.X.a(p33SMPS_hsadc.o)
                  0x01118c                  _smpsHSADC_Cores_CheckReady

.text.smpsUART_Close
                  0x0111f8         0x62
 .text.smpsUART_Close
                  0x0111f8         0x62 ..\..\plib\p33SMPS_mcal.X\dist\__P33SMPS_CK__\debug\p33SMPS_mcal.X.a(p33SMPS_uart.o)
                  0x0111f8                  _smpsUART_Close

.text.smpsHSPWM_SetDutyCycle
                  0x01125a         0x60
 .text.smpsHSPWM_SetDutyCycle
                  0x01125a         0x60 ..\..\plib\p33SMPS_mcal.X\dist\__P33SMPS_CK__\debug\p33SMPS_mcal.X.a(p33SMPS_hspwm_c.o)
                  0x01125a                  _smpsHSPWM_SetDutyCycle

.text             0x0112ba         0x5c
 .text            0x0112ba         0x5c build/00173_USB_PD_BOB_R21/debug/_ext/1171588148/init_timer.o
                  0x0112ba                  _OSTimer_Initialize
                  0x0112fe                  _OSTimer_Start

.text.smpsGPIO_SetIOConfig
                  0x011316         0x56
 .text.smpsGPIO_SetIOConfig
                  0x011316         0x56 ..\..\plib\p33SMPS_mcal.X\dist\__P33SMPS_CK__\debug\p33SMPS_mcal.X.a(p33SMPS_gpio.o)
                  0x011316                  _smpsGPIO_SetIOConfig

.text             0x01136c         0x54
 .text            0x01136c         0x54 build/00173_USB_PD_BOB_R21/debug/_ext/1838571682/task_PDStack.o
                  0x01136c                  _task_PDStack
                  0x0113ae                  _init_taskPDStack

.text.smpsGPIO_Initialize
                  0x0113c0         0x54
 .text.smpsGPIO_Initialize
                  0x0113c0         0x54 ..\..\plib\p33SMPS_mcal.X\dist\__P33SMPS_CK__\debug\p33SMPS_mcal.X.a(p33SMPS_gpio.o)
                  0x0113c0                  _smpsGPIO_Initialize

.text             0x011414         0x52
 .text            0x011414         0x52 build/00173_USB_PD_BOB_R21/debug/_ext/553671219/c4swbb_write_pwm.o
                  0x011414                  _c4swbb_pwm_update

.text.smpsHSADC_Module_Enable
                  0x011466         0x52
 .text.smpsHSADC_Module_Enable
                  0x011466         0x52 ..\..\plib\p33SMPS_mcal.X\dist\__P33SMPS_CK__\debug\p33SMPS_mcal.X.a(p33SMPS_hsadc.o)
                  0x011466                  _smpsHSADC_Module_Enable

.text.smpsPMD_SetPowerStateAll
                  0x0114b8         0x52
 .text.smpsPMD_SetPowerStateAll
                  0x0114b8         0x52 ..\..\plib\p33SMPS_mcal.X\dist\__P33SMPS_CK__\debug\p33SMPS_mcal.X.a(p33SMPS_pmd.o)
                  0x0114b8                  _smpsPMD_SetPowerStateAll

.text.smpsOSC_AUXCLK_DefaultInitialize
                  0x01150a         0x50
 .text.smpsOSC_AUXCLK_DefaultInitialize
                  0x01150a         0x50 ..\..\plib\p33SMPS_mcal.X\dist\__P33SMPS_CK__\debug\p33SMPS_mcal.X.a(p33SMPS_oscillator.o)
                  0x01150a                  _smpsOSC_AUXCLK_DefaultInitialize

.text.smpsHSPWM_OVR_Hold
                  0x01155a         0x4e
 .text.smpsHSPWM_OVR_Hold
                  0x01155a         0x4e ..\..\plib\p33SMPS_mcal.X\dist\__P33SMPS_CK__\debug\p33SMPS_mcal.X.a(p33SMPS_hspwm_c.o)
                  0x01155a                  _smpsHSPWM_OVR_Hold

.text.smpsHSPWM_OVR_Release
                  0x0115a8         0x4e
 .text.smpsHSPWM_OVR_Release
                  0x0115a8         0x4e ..\..\plib\p33SMPS_mcal.X\dist\__P33SMPS_CK__\debug\p33SMPS_mcal.X.a(p33SMPS_hspwm_c.o)
                  0x0115a8                  _smpsHSPWM_OVR_Release

.text.smpsHSPWM_OVR_ReleaseHighSide
                  0x0115f6         0x4e
 .text.smpsHSPWM_OVR_ReleaseHighSide
                  0x0115f6         0x4e ..\..\plib\p33SMPS_mcal.X\dist\__P33SMPS_CK__\debug\p33SMPS_mcal.X.a(p33SMPS_hspwm_c.o)
                  0x0115f6                  _smpsHSPWM_OVR_ReleaseHighSide

.text.smpsHSPWM_OVR_ReleaseLowSide
                  0x011644         0x4e
 .text.smpsHSPWM_OVR_ReleaseLowSide
                  0x011644         0x4e ..\..\plib\p33SMPS_mcal.X\dist\__P33SMPS_CK__\debug\p33SMPS_mcal.X.a(p33SMPS_hspwm_c.o)
                  0x011644                  _smpsHSPWM_OVR_ReleaseLowSide

.text.smpsHSPWM_SetGPIO_HighSide
                  0x011692         0x4c
 .text.smpsHSPWM_SetGPIO_HighSide
                  0x011692         0x4c ..\..\plib\p33SMPS_mcal.X\dist\__P33SMPS_CK__\debug\p33SMPS_mcal.X.a(p33SMPS_hspwm_c.o)
                  0x011692                  _smpsHSPWM_SetGPIO_HighSide

.text.smpsHSPWM_ResetGPIO_HighSide
                  0x0116de         0x4c
 .text.smpsHSPWM_ResetGPIO_HighSide
                  0x0116de         0x4c ..\..\plib\p33SMPS_mcal.X\dist\__P33SMPS_CK__\debug\p33SMPS_mcal.X.a(p33SMPS_hspwm_c.o)
                  0x0116de                  _smpsHSPWM_ResetGPIO_HighSide

.text.smpsHSPWM_SetGPIO_LowSide
                  0x01172a         0x4c
 .text.smpsHSPWM_SetGPIO_LowSide
                  0x01172a         0x4c ..\..\plib\p33SMPS_mcal.X\dist\__P33SMPS_CK__\debug\p33SMPS_mcal.X.a(p33SMPS_hspwm_c.o)
                  0x01172a                  _smpsHSPWM_SetGPIO_LowSide

.text.smpsHSPWM_ResetGPIO_LowSide
                  0x011776         0x4c
 .text.smpsHSPWM_ResetGPIO_LowSide
                  0x011776         0x4c ..\..\plib\p33SMPS_mcal.X\dist\__P33SMPS_CK__\debug\p33SMPS_mcal.X.a(p33SMPS_hspwm_c.o)
                  0x011776                  _smpsHSPWM_ResetGPIO_LowSide

.text.smpsTimer_Enable
                  0x0117c2         0x4a
 .text.smpsTimer_Enable
                  0x0117c2         0x4a ..\..\plib\p33SMPS_mcal.X\dist\__P33SMPS_CK__\debug\p33SMPS_mcal.X.a(p33SMPS_timer.o)
                  0x0117c2                  _smpsTimer_Enable

.text.gsirq_soft_traps_initialize
                  0x01180c         0x4a
 .text.gsirq_soft_traps_initialize
                  0x01180c         0x4a ..\..\plib\p33SMPS_mcal.X\dist\__P33SMPS_CK__\debug\p33SMPS_mcal.X.a(p33SMPS_irq.o)
                  0x01180c                  _gsirq_soft_traps_initialize

.text.smpsHSADC_Module_Reset
                  0x011856         0x44
 .text.smpsHSADC_Module_Reset
                  0x011856         0x44 ..\..\plib\p33SMPS_mcal.X\dist\__P33SMPS_CK__\debug\p33SMPS_mcal.X.a(p33SMPS_hsadc.o)
                  0x011856                  _smpsHSADC_Module_Reset

.text.smpsUART_Enable
                  0x01189a         0x44
 .text.smpsUART_Enable
                  0x01189a         0x44 ..\..\plib\p33SMPS_mcal.X\dist\__P33SMPS_CK__\debug\p33SMPS_mcal.X.a(p33SMPS_uart.o)
                  0x01189a                  _smpsUART_Enable

.text.smpsHSPWM_Disable
                  0x0118de         0x44
 .text.smpsHSPWM_Disable
                  0x0118de         0x44 ..\..\plib\p33SMPS_mcal.X\dist\__P33SMPS_CK__\debug\p33SMPS_mcal.X.a(p33SMPS_hspwm_c.o)
                  0x0118de                  _smpsHSPWM_Disable

.text.smpsHSADC_ADInput_SetTriggerSource
                  0x011922         0x42
 .text.smpsHSADC_ADInput_SetTriggerSource
                  0x011922         0x42 ..\..\plib\p33SMPS_mcal.X\dist\__P33SMPS_CK__\debug\p33SMPS_mcal.X.a(p33SMPS_hsadc.o)
                  0x011922                  _smpsHSADC_ADInput_SetTriggerSource

.text             0x011964         0x40
 .text            0x011964         0x40 build/00173_USB_PD_BOB_R21/debug/_ext/949971983/fdrv_TrapHandler.o
                  0x011964                  _init_SoftTraps
                  0x01198a                  _DefaultTrapHandler

.text.smpsOSC_FRC_Initialize
                  0x0119a4         0x40
 .text.smpsOSC_FRC_Initialize
                  0x0119a4         0x40 ..\..\plib\p33SMPS_mcal.X\dist\__P33SMPS_CK__\debug\p33SMPS_mcal.X.a(p33SMPS_oscillator.o)
                  0x0119a4                  _smpsOSC_FRC_Initialize

.text.smpsPPS_RemapOutput
                  0x0119e4         0x3c
 .text.smpsPPS_RemapOutput
                  0x0119e4         0x3c ..\..\plib\p33SMPS_mcal.X\dist\__P33SMPS_CK__\debug\p33SMPS_mcal.X.a(p33SMPS_pps.o)
                  0x0119e4                  _smpsPPS_RemapOutput

.text.smpsUART_GetStatus
                  0x011a20         0x3c
 .text.smpsUART_GetStatus
                  0x011a20         0x3c ..\..\plib\p33SMPS_mcal.X\dist\__P33SMPS_CK__\debug\p33SMPS_mcal.X.a(p33SMPS_uart.o)
                  0x011a20                  _smpsUART_GetStatus

.text.smpsUART_Disable
                  0x011a5c         0x3a
 .text.smpsUART_Disable
                  0x011a5c         0x3a ..\..\plib\p33SMPS_mcal.X\dist\__P33SMPS_CK__\debug\p33SMPS_mcal.X.a(p33SMPS_uart.o)
                  0x011a5c                  _smpsUART_Disable

.text             0x011a96        0x12c
 .text            0x011a96         0x34 build/00173_USB_PD_BOB_R21/debug/_ext/687227054/UserAppManager.o
                  0x011a96                  _APPLICATION_Initialize
                  0x011aaa                  _APPLICATION_Reset
                  0x011abe                  _APPLICATION_CaptureSystemStatus
 .text            0x011aca         0x34 build/00173_USB_PD_BOB_R21/debug/_ext/1171588148/init_irq.o
                  0x011aca                  _IRQ_initialize
 .text            0x011afe         0x32 build/00173_USB_PD_BOB_R21/debug/_ext/2109991248/upd_timer.o
                  0x011afe                  _PD_TMR_Initialize
 .text            0x011b30         0x32 build/00173_USB_PD_BOB_R21/debug/_ext/1666088709/int_globals.o
                  0x011b30                  _PD_GenericInitialize
                  0x011b3a                  _PD_InitializeInternalGlobals
 .text            0x011b62         0x30 build/00173_USB_PD_BOB_R21/debug/_ext/1515990320/smpsDebugUART_UserCID.o
                  0x011b62                  _smpsDebugUART_ProcessUserCID
 .text            0x011b92         0x30 build/00173_USB_PD_BOB_R21/debug/_ext/1171588148/init_fosc.o
                  0x011b92                  _MainOscillator_Initialize
                  0x011baa                  _AuxOscillator_Initialize

.text.smpsUART_GetHandle
                  0x011bc2         0x30
 .text.smpsUART_GetHandle
                  0x011bc2         0x30 ..\..\plib\p33SMPS_mcal.X\dist\__P33SMPS_CK__\debug\p33SMPS_mcal.X.a(p33SMPS_uart.o)
                  0x011bc2                  _smpsUART_GetHandle

.text.smpsTimer_PowerOn
                  0x011bf2         0x2c
 .text.smpsTimer_PowerOn
                  0x011bf2         0x2c ..\..\plib\p33SMPS_mcal.X\dist\__P33SMPS_CK__\debug\p33SMPS_mcal.X.a(p33SMPS_timer.o)
                  0x011bf2                  _smpsTimer_PowerOn

.text.smpsTimer_PowerOff
                  0x011c1e         0x2a
 .text.smpsTimer_PowerOff
                  0x011c1e         0x2a ..\..\plib\p33SMPS_mcal.X\dist\__P33SMPS_CK__\debug\p33SMPS_mcal.X.a(p33SMPS_timer.o)
                  0x011c1e                  _smpsTimer_PowerOff

.text.smpsTimer_Dispose
                  0x011c48         0x28
 .text.smpsTimer_Dispose
                  0x011c48         0x28 ..\..\plib\p33SMPS_mcal.X\dist\__P33SMPS_CK__\debug\p33SMPS_mcal.X.a(p33SMPS_timer.o)
                  0x011c48                  _smpsTimer_Dispose

.text.gsirq_get_current_irq_priority_level
                  0x011c70         0x26
 .text.gsirq_get_current_irq_priority_level
                  0x011c70         0x26 ..\..\plib\p33SMPS_mcal.X\dist\__P33SMPS_CK__\debug\p33SMPS_mcal.X.a(p33SMPS_irq.o)
                  0x011c70                  _gsirq_get_current_irq_priority_level

.text.smpsHSADC_Module_PowerDown
                  0x011c96         0x24
 .text.smpsHSADC_Module_PowerDown
                  0x011c96         0x24 ..\..\plib\p33SMPS_mcal.X\dist\__P33SMPS_CK__\debug\p33SMPS_mcal.X.a(p33SMPS_hsadc.o)
                  0x011c96                  _smpsHSADC_Module_PowerDown

.text.smpsTimer_Disable
                  0x011cba         0x24
 .text.smpsTimer_Disable
                  0x011cba         0x24 ..\..\plib\p33SMPS_mcal.X\dist\__P33SMPS_CK__\debug\p33SMPS_mcal.X.a(p33SMPS_timer.o)
                  0x011cba                  _smpsTimer_Disable

.text.smpsHSADC_Module_PowerUp
                  0x011cde         0x22
 .text.smpsHSADC_Module_PowerUp
                  0x011cde         0x22 ..\..\plib\p33SMPS_mcal.X\dist\__P33SMPS_CK__\debug\p33SMPS_mcal.X.a(p33SMPS_hsadc.o)
                  0x011cde                  _smpsHSADC_Module_PowerUp

.text.smpsTimer_Reset
                  0x011d00         0x20
 .text.smpsTimer_Reset
                  0x011d00         0x20 ..\..\plib\p33SMPS_mcal.X\dist\__P33SMPS_CK__\debug\p33SMPS_mcal.X.a(p33SMPS_timer.o)
                  0x011d00                  _smpsTimer_Reset

.text             0x011d20         0x1c
 .text            0x011d20         0x1c build/00173_USB_PD_BOB_R21/debug/_ext/1171588148/init_dsp.o
                  0x011d20                  _DSP_initialize

.text.smpsPPS_UnlockIO
                  0x011d3c         0x1a
 .text.smpsPPS_UnlockIO
                  0x011d3c         0x1a ..\..\plib\p33SMPS_mcal.X\dist\__P33SMPS_CK__\debug\p33SMPS_mcal.X.a(p33SMPS_pps.o)
                  0x011d3c                  _smpsPPS_UnlockIO

.text.smpsPPS_LockIO
                  0x011d56         0x18
 .text.smpsPPS_LockIO
                  0x011d56         0x18 ..\..\plib\p33SMPS_mcal.X\dist\__P33SMPS_CK__\debug\p33SMPS_mcal.X.a(p33SMPS_pps.o)
                  0x011d56                  _smpsPPS_LockIO

.text.smpsPPS_UnmapOutput
                  0x011d6e         0x16
 .text.smpsPPS_UnmapOutput
                  0x011d6e         0x16 ..\..\plib\p33SMPS_mcal.X\dist\__P33SMPS_CK__\debug\p33SMPS_mcal.X.a(p33SMPS_pps.o)
                  0x011d6e                  _smpsPPS_UnmapOutput

.text.smpsPPS_UnmapInput
                  0x011d84         0x16
 .text.smpsPPS_UnmapInput
                  0x011d84         0x16 ..\..\plib\p33SMPS_mcal.X\dist\__P33SMPS_CK__\debug\p33SMPS_mcal.X.a(p33SMPS_pps.o)
                  0x011d84                  _smpsPPS_UnmapInput

.text.smpsHSPWM_PowerUp
                  0x011d9a         0x14
 .text.smpsHSPWM_PowerUp
                  0x011d9a         0x14 ..\..\plib\p33SMPS_mcal.X\dist\__P33SMPS_CK__\debug\p33SMPS_mcal.X.a(p33SMPS_hspwm_c.o)
                  0x011d9a                  _smpsHSPWM_PowerUp

.text.smpsHSPWM_PowerDown
                  0x011dae         0x14
 .text.smpsHSPWM_PowerDown
                  0x011dae         0x14 ..\..\plib\p33SMPS_mcal.X\dist\__P33SMPS_CK__\debug\p33SMPS_mcal.X.a(p33SMPS_hspwm_c.o)
                  0x011dae                  _smpsHSPWM_PowerDown

.text.smpsPPS_RemapInput
                  0x011dc2         0x12
 .text.smpsPPS_RemapInput
                  0x011dc2         0x12 ..\..\plib\p33SMPS_mcal.X\dist\__P33SMPS_CK__\debug\p33SMPS_mcal.X.a(p33SMPS_pps.o)
                  0x011dc2                  _smpsPPS_RemapInput

.text             0x011dd4         0x10
 .text            0x011dd4         0x10 build/00173_USB_PD_BOB_R21/debug/_ext/687227054/UserTasks.o
                  0x011dd4                  _task_queue_idle_init
                  0x011dd8                  _task_queue_run_init
                  0x011ddc                  _task_queue_fault_init
                  0x011de0                  _task_queue_standby_init

.text.smpsHSADC_Module_Disable
                  0x011de4         0x10
 .text.smpsHSADC_Module_Disable
                  0x011de4         0x10 ..\..\plib\p33SMPS_mcal.X\dist\__P33SMPS_CK__\debug\p33SMPS_mcal.X.a(p33SMPS_hsadc.o)
                  0x011de4                  _smpsHSADC_Module_Disable

.text             0x011df4          0xc
 .text            0x011df4          0xc build/00173_USB_PD_BOB_R21/debug/_ext/1360937237/main.o
                  0x011df4                  _main

.text.gsirq_get_current_irq_vector
                  0x011e00          0xa
 .text.gsirq_get_current_irq_vector
                  0x011e00          0xa ..\..\plib\p33SMPS_mcal.X\dist\__P33SMPS_CK__\debug\p33SMPS_mcal.X.a(p33SMPS_irq.o)
                  0x011e00                  _gsirq_get_current_irq_vector

.text             0x011e0a          0xc
 .text            0x011e0a          0x4 build/00173_USB_PD_BOB_R21/debug/_ext/1838571682/task_Idle.o
                  0x011e0a                  _task_Idle
 .text            0x011e0e          0x4 build/00173_USB_PD_BOB_R21/debug/_ext/1171588148/init_gpio.o
                  0x011e0e                  _GPIO_initialize
 .text            0x011e12          0x2 build/00173_USB_PD_BOB_R21/debug/_ext/687227054/UserStartupCode.o
                  0x011e12                  _ExecuteUserStartupCode
 .text            0x011e14          0x2 build/00173_USB_PD_BOB_R21/debug/_ext/1666088709/cfg_globals.o
                  0x011e14                  _PD_InitializeConfigGlobals
